ARM GAS  C:\Users\nikod\AppData\Local\Temp\ccKrhu6X.s 			page 1


   1              		.syntax unified
   2              		.cpu cortex-m3
   3              		.fpu softvfp
   4              		.eabi_attribute 20, 1
   5              		.eabi_attribute 21, 1
   6              		.eabi_attribute 23, 3
   7              		.eabi_attribute 24, 1
   8              		.eabi_attribute 25, 1
   9              		.eabi_attribute 26, 1
  10              		.eabi_attribute 30, 1
  11              		.eabi_attribute 34, 1
  12              		.eabi_attribute 18, 4
  13              		.thumb
  14              		.syntax unified
  15              		.file	"main.c"
  16              		.text
  17              	.Ltext0:
  18              		.cfi_sections	.debug_frame
  19              		.section	.text.InterrupRx,"ax",%progbits
  20              		.align	2
  21              		.global	InterrupRx
  22              		.thumb
  23              		.thumb_func
  24              		.type	InterrupRx, %function
  25              	InterrupRx:
  26              	.LFB64:
  27              		.file 1 "main.c"
   1:main.c        **** /* ========================================
   2:main.c        ****  *
   3:main.c        ****  * Copyright YOUR COMPANY, THE YEAR
   4:main.c        ****  * All Rights Reserved
   5:main.c        ****  * UNPUBLISHED, LICENSED SOFTWARE.
   6:main.c        ****  *
   7:main.c        ****  * CONFIDENTIAL AND PROPRIETARY INFORMATION
   8:main.c        ****  * WHICH IS THE PROPERTY OF your company.
   9:main.c        ****  *
  10:main.c        ****  * ========================================
  11:main.c        **** */
  12:main.c        **** #include "project.h"
  13:main.c        **** #include <string.h>
  14:main.c        **** #include <stdio.h>
  15:main.c        **** #include <stdbool.h>
  16:main.c        **** #include "MAX30102.h"
  17:main.c        **** #define MAX30105_ADDRESS          0x57 //7-bit I2C Address
  18:main.c        **** 
  19:main.c        **** 
  20:main.c        **** const unsigned char ledBrightness = 0x1F; //Options: 0=Off to 255=50mA
  21:main.c        **** const unsigned char sampleAverage = 8; //Options: 1, 2, 4, 8, 16, 32
  22:main.c        **** const unsigned char ledMode = 3; //Options: 1 = Red only, 2 = Red + IR, 3 = Red + IR + Green
  23:main.c        **** const int sampleRate = 100; //Options: 50, 100, 200, 400, 800, 1000, 1600, 3200
  24:main.c        **** const int pulseWidth = 411; //Options: 69, 118, 215, 411
  25:main.c        **** const int adcRange = 4096; //Options: 2048, 4096, 8192, 16384
  26:main.c        **** 
  27:main.c        **** volatile char data;
  28:main.c        **** char Buffer[12]={};
  29:main.c        **** 
  30:main.c        **** CY_ISR(InterrupRx){
ARM GAS  C:\Users\nikod\AppData\Local\Temp\ccKrhu6X.s 			page 2


  28              		.loc 1 30 0
  29              		.cfi_startproc
  30              		@ args = 0, pretend = 0, frame = 0
  31              		@ frame_needed = 0, uses_anonymous_args = 0
  32 0000 08B5     		push	{r3, lr}
  33              		.cfi_def_cfa_offset 8
  34              		.cfi_offset 3, -8
  35              		.cfi_offset 14, -4
  31:main.c        ****     data=UART_GetChar();//recibe el dato del bluetooth
  36              		.loc 1 31 0
  37 0002 FFF7FEFF 		bl	UART_GetChar
  38              	.LVL0:
  39 0006 024B     		ldr	r3, .L3
  40 0008 1870     		strb	r0, [r3]
  32:main.c        ****     switch (data){
  41              		.loc 1 32 0
  42 000a 1B78     		ldrb	r3, [r3]	@ zero_extendqisi2
  43 000c 08BD     		pop	{r3, pc}
  44              	.L4:
  45 000e 00BF     		.align	2
  46              	.L3:
  47 0010 00000000 		.word	data
  48              		.cfi_endproc
  49              	.LFE64:
  50              		.size	InterrupRx, .-InterrupRx
  51              		.section	.text.main,"ax",%progbits
  52              		.align	2
  53              		.global	main
  54              		.thumb
  55              		.thumb_func
  56              		.type	main, %function
  57              	main:
  58              	.LFB65:
  33:main.c        ****         case '5':{            
  34:main.c        ****             break;
  35:main.c        ****         }
  36:main.c        ****         
  37:main.c        ****         case '6':
  38:main.c        ****         {   
  39:main.c        ****             
  40:main.c        ****             break;
  41:main.c        ****         }
  42:main.c        ****         default:
  43:main.c        ****         {
  44:main.c        ****             break;
  45:main.c        ****         }
  46:main.c        ****     }
  47:main.c        **** }
  48:main.c        **** 
  49:main.c        **** 
  50:main.c        **** int main(void)
  51:main.c        **** {
  59              		.loc 1 51 0
  60              		.cfi_startproc
  61              		@ Volatile: function does not return.
  62              		@ args = 0, pretend = 0, frame = 0
  63              		@ frame_needed = 0, uses_anonymous_args = 0
ARM GAS  C:\Users\nikod\AppData\Local\Temp\ccKrhu6X.s 			page 3


  64 0000 00B5     		push	{lr}
  65              		.cfi_def_cfa_offset 4
  66              		.cfi_offset 14, -4
  67 0002 83B0     		sub	sp, sp, #12
  68              		.cfi_def_cfa_offset 16
  52:main.c        ****     CyGlobalIntEnable; /* Enable global interrupts. */
  69              		.loc 1 52 0
  70              		.syntax unified
  71              	@ 52 "main.c" 1
  72 0004 62B6     		CPSIE   i
  73              	@ 0 "" 2
  53:main.c        ****     IRQRX_StartEx(InterrupRx);
  74              		.loc 1 53 0
  75              		.thumb
  76              		.syntax unified
  77 0006 1348     		ldr	r0, .L8
  78 0008 FFF7FEFF 		bl	IRQRX_StartEx
  79              	.LVL1:
  54:main.c        ****     UART_Start();
  80              		.loc 1 54 0
  81 000c FFF7FEFF 		bl	UART_Start
  82              	.LVL2:
  55:main.c        ****     UART_PutString("Iniciando\r\n");
  83              		.loc 1 55 0
  84 0010 1148     		ldr	r0, .L8+4
  85 0012 FFF7FEFF 		bl	UART_PutString
  86              	.LVL3:
  56:main.c        ****     Max_Init(ledBrightness, sampleAverage, ledMode, sampleRate, pulseWidth, adcRange); //Configure 
  87              		.loc 1 56 0
  88 0016 4FF48053 		mov	r3, #4096
  89 001a 0193     		str	r3, [sp, #4]
  90 001c 40F29B13 		movw	r3, #411
  91 0020 0093     		str	r3, [sp]
  92 0022 6423     		movs	r3, #100
  93 0024 0322     		movs	r2, #3
  94 0026 0821     		movs	r1, #8
  95 0028 1F20     		movs	r0, #31
  96 002a FFF7FEFF 		bl	Max_Init
  97              	.LVL4:
  98              	.L6:
  57:main.c        ****     
  58:main.c        ****     /* Place your initialization/startup code here (e.g. MyInst_Start()) */
  59:main.c        **** 
  60:main.c        ****     for(;;)
  61:main.c        ****     {
  62:main.c        ****         sprintf(Buffer,"%lu",Max_getIR());//lo codifica en ascci
  99              		.loc 1 62 0 discriminator 1
 100 002e FFF7FEFF 		bl	Max_getIR
 101              	.LVL5:
 102 0032 0A4C     		ldr	r4, .L8+8
 103 0034 0246     		mov	r2, r0
 104 0036 0A49     		ldr	r1, .L8+12
 105 0038 2046     		mov	r0, r4
 106 003a FFF7FEFF 		bl	sprintf
 107              	.LVL6:
  63:main.c        ****         UART_PutString(Buffer);
 108              		.loc 1 63 0 discriminator 1
ARM GAS  C:\Users\nikod\AppData\Local\Temp\ccKrhu6X.s 			page 4


 109 003e 2046     		mov	r0, r4
 110 0040 FFF7FEFF 		bl	UART_PutString
 111              	.LVL7:
  64:main.c        ****         UART_PutString("\r\n");
 112              		.loc 1 64 0 discriminator 1
 113 0044 0748     		ldr	r0, .L8+16
 114 0046 FFF7FEFF 		bl	UART_PutString
 115              	.LVL8:
  65:main.c        ****         CyDelay(10);
 116              		.loc 1 65 0 discriminator 1
 117 004a 0A20     		movs	r0, #10
 118 004c FFF7FEFF 		bl	CyDelay
 119              	.LVL9:
 120 0050 EDE7     		b	.L6
 121              	.L9:
 122 0052 00BF     		.align	2
 123              	.L8:
 124 0054 00000000 		.word	InterrupRx
 125 0058 00000000 		.word	.LC0
 126 005c 00000000 		.word	.LANCHOR0
 127 0060 0C000000 		.word	.LC1
 128 0064 10000000 		.word	.LC2
 129              		.cfi_endproc
 130              	.LFE65:
 131              		.size	main, .-main
 132              		.global	Buffer
 133              		.comm	data,1,1
 134              		.global	adcRange
 135              		.global	pulseWidth
 136              		.global	sampleRate
 137              		.global	ledMode
 138              		.global	sampleAverage
 139              		.global	ledBrightness
 140              		.comm	activeLEDs,1,1
 141              		.section	.rodata
 142              		.align	2
 143              		.type	adcRange, %object
 144              		.size	adcRange, 4
 145              	adcRange:
 146 0000 00100000 		.word	4096
 147              		.type	pulseWidth, %object
 148              		.size	pulseWidth, 4
 149              	pulseWidth:
 150 0004 9B010000 		.word	411
 151              		.type	sampleRate, %object
 152              		.size	sampleRate, 4
 153              	sampleRate:
 154 0008 64000000 		.word	100
 155              		.type	ledMode, %object
 156              		.size	ledMode, 1
 157              	ledMode:
 158 000c 03       		.byte	3
 159              		.type	sampleAverage, %object
 160              		.size	sampleAverage, 1
 161              	sampleAverage:
 162 000d 08       		.byte	8
 163              		.type	ledBrightness, %object
ARM GAS  C:\Users\nikod\AppData\Local\Temp\ccKrhu6X.s 			page 5


 164              		.size	ledBrightness, 1
 165              	ledBrightness:
 166 000e 1F       		.byte	31
 167              		.section	.rodata.str1.4,"aMS",%progbits,1
 168              		.align	2
 169              	.LC0:
 170 0000 496E6963 		.ascii	"Iniciando\015\012\000"
 170      69616E64 
 170      6F0D0A00 
 171              	.LC1:
 172 000c 256C7500 		.ascii	"%lu\000"
 173              	.LC2:
 174 0010 0D0A00   		.ascii	"\015\012\000"
 175              		.bss
 176              		.align	2
 177              		.set	.LANCHOR0,. + 0
 178              		.type	Buffer, %object
 179              		.size	Buffer, 12
 180              	Buffer:
 181 0000 00000000 		.space	12
 181      00000000 
 181      00000000 
 182              		.text
 183              	.Letext0:
 184              		.file 2 "c:\\program files (x86)\\cypress\\psoc creator\\4.2\\psoc creator\\import\\gnu\\arm\\5.4.
 185              		.file 3 "c:\\program files (x86)\\cypress\\psoc creator\\4.2\\psoc creator\\import\\gnu\\arm\\5.4.
 186              		.file 4 "Generated_Source\\PSoC5/core_cm3.h"
 187              		.file 5 "MAX30102.h"
 188              		.file 6 "Generated_Source\\PSoC5/UART.h"
 189              		.file 7 "Generated_Source\\PSoC5/IRQRX.h"
 190              		.file 8 "c:\\program files (x86)\\cypress\\psoc creator\\4.2\\psoc creator\\import\\gnu\\arm\\5.4.
 191              		.file 9 "Generated_Source\\PSoC5/CyLib.h"