ARM GAS  C:\Users\nikod\AppData\Local\Temp\ccGwiLMd.s 			page 1


   1              		.syntax unified
   2              		.cpu cortex-m3
   3              		.fpu softvfp
   4              		.eabi_attribute 20, 1
   5              		.eabi_attribute 21, 1
   6              		.eabi_attribute 23, 3
   7              		.eabi_attribute 24, 1
   8              		.eabi_attribute 25, 1
   9              		.eabi_attribute 26, 1
  10              		.eabi_attribute 30, 1
  11              		.eabi_attribute 34, 1
  12              		.eabi_attribute 18, 4
  13              		.thumb
  14              		.syntax unified
  15              		.file	"MAX30102.c"
  16              		.text
  17              	.Ltext0:
  18              		.cfi_sections	.debug_frame
  19              		.section	.text.Max_Beginread,"ax",%progbits
  20              		.align	2
  21              		.global	Max_Beginread
  22              		.thumb
  23              		.thumb_func
  24              		.type	Max_Beginread, %function
  25              	Max_Beginread:
  26              	.LFB64:
  27              		.file 1 "MAX30102.c"
   1:MAX30102.c    **** #include <project.h>
   2:MAX30102.c    **** #include "I2C.h"
   3:MAX30102.c    **** #include "UART.h"
   4:MAX30102.c    **** #include <string.h>
   5:MAX30102.c    **** #include <stdio.h>
   6:MAX30102.c    **** #include <stdint.h>
   7:MAX30102.c    **** #include <stdbool.h>
   8:MAX30102.c    **** #include <stddef.h>
   9:MAX30102.c    **** #include "MAX30102.h"
  10:MAX30102.c    **** 
  11:MAX30102.c    **** #define MAX30102_DIETEMPINT     0x1F
  12:MAX30102.c    **** #define MAX30102_INTSTAT1 		0x00
  13:MAX30102.c    **** #define MAX30102_INTSTAT2 	    0x01
  14:MAX30102.c    **** #define MAX30102_INTENABLE1 	0x02
  15:MAX30102.c    **** #define MAX30102_INTENABLE2 	0x03
  16:MAX30102.c    **** 
  17:MAX30102.c    **** // FIFO Registers
  18:MAX30102.c    **** #define MAX30102_FIFOWRITEPTR  	0x04
  19:MAX30102.c    **** #define MAX30102_FIFOOVERFLOW  	0x05
  20:MAX30102.c    **** #define MAX30102_FIFOREADPTR  	0x06
  21:MAX30102.c    **** #define MAX30102_FIFODATA 		0x07
  22:MAX30102.c    **** 
  23:MAX30102.c    **** // Configuration Registers
  24:MAX30102.c    **** #define MAX30102_FIFOCONFIG  		0x08
  25:MAX30102.c    **** #define MAX30102_MODECONFIG  		0x09
  26:MAX30102.c    **** #define MAX30102_PARTICLECONFIG  	0x0A    // Note, sometimes listed as "SPO2" config in datasheet (
  27:MAX30102.c    **** #define MAX30102_LED1_PULSEAMP  	0x0C
  28:MAX30102.c    **** #define MAX30102_LED2_PULSEAMP  	0x0D
  29:MAX30102.c    **** #define MAX30102_LED3_PULSEAMP  	0x0E
  30:MAX30102.c    **** #define MAX30102_LED_PROX_AMP  	    0x10
ARM GAS  C:\Users\nikod\AppData\Local\Temp\ccGwiLMd.s 			page 2


  31:MAX30102.c    **** #define MAX30102_MULTILEDCONFIG1    0x11
  32:MAX30102.c    **** #define MAX30102_MULTILEDCONFIG2    0x12
  33:MAX30102.c    **** 
  34:MAX30102.c    **** // Die Temperature Registers
  35:MAX30102.c    **** #define MAX30102_DIETEMPINT  		0x1F
  36:MAX30102.c    **** #define MAX30102_DIETEMPFRAC  	    0x20
  37:MAX30102.c    **** #define MAX30102_DIETEMPCONFIG  	0x21
  38:MAX30102.c    **** 
  39:MAX30102.c    **** // Proximity Function Registers
  40:MAX30102.c    **** #define MAX30102_PROXINTTHRESH  	0x30
  41:MAX30102.c    **** 
  42:MAX30102.c    **** // Part ID Registers
  43:MAX30102.c    **** #define MAX30102_REVISIONID  		0xFE
  44:MAX30102.c    **** #define MAX30102_PARTID  			0xFF    // Should always be 0x15. Identical to MAX30102.
  45:MAX30102.c    **** 
  46:MAX30102.c    **** // MAX30102 Commands
  47:MAX30102.c    **** // Interrupt configuration (pg 13, 14)
  48:MAX30102.c    **** #define MAX30102_INT_A_FULL_MASK 		0b10000000
  49:MAX30102.c    **** #define MAX30102_INT_A_FULL_ENABLE  	0x80
  50:MAX30102.c    **** #define MAX30102_INT_A_FULL_DISABLE  	0x00
  51:MAX30102.c    **** 
  52:MAX30102.c    **** #define MAX30102_INT_DATA_RDY_MASK      0b01000000
  53:MAX30102.c    **** #define MAX30102_INT_DATA_RDY_ENABLE 	0x40
  54:MAX30102.c    **** #define MAX30102_INT_DATA_RDY_DISABLE   0x00
  55:MAX30102.c    **** 
  56:MAX30102.c    **** #define MAX30102_INT_ALC_OVF_MASK       0b00100000
  57:MAX30102.c    **** #define MAX30102_INT_ALC_OVF_ENABLE  	0x20
  58:MAX30102.c    **** #define MAX30102_INT_ALC_OVF_DISABLE    0x00
  59:MAX30102.c    **** 
  60:MAX30102.c    **** #define MAX30102_INT_PROX_INT_MASK      0b00010000
  61:MAX30102.c    **** #define MAX30102_INT_PROX_INT_ENABLE    0x10
  62:MAX30102.c    **** #define MAX30102_INT_PROX_INT_DISABLE   0x00
  63:MAX30102.c    **** 
  64:MAX30102.c    **** #define MAX30102_INT_DIE_TEMP_RDY_MASK  0b00000010
  65:MAX30102.c    **** #define MAX30102_INT_DIE_TEMP_RDY_ENABLE  0x02
  66:MAX30102.c    **** #define MAX30102_INT_DIE_TEMP_RDY_DISABLE  0x00
  67:MAX30102.c    **** 
  68:MAX30102.c    **** #define MAX30102_SAMPLEAVG_MASK 	0b11100000
  69:MAX30102.c    **** #define MAX30102_SAMPLEAVG_1  	    0x00
  70:MAX30102.c    **** #define MAX30102_SAMPLEAVG_2  	    0x20
  71:MAX30102.c    **** #define MAX30102_SAMPLEAVG_4  	    0x40
  72:MAX30102.c    **** #define MAX30102_SAMPLEAVG_8  	    0x60
  73:MAX30102.c    **** #define MAX30102_SAMPLEAVG_16  	    0x80
  74:MAX30102.c    **** #define MAX30102_SAMPLEAVG_32  	    0xA0
  75:MAX30102.c    **** 
  76:MAX30102.c    **** #define MAX30102_ROLLOVER_MASK  	0xEF
  77:MAX30102.c    **** #define MAX30102_ROLLOVER_ENABLE    0x10
  78:MAX30102.c    **** #define MAX30102_ROLLOVER_DISABLE   0x00
  79:MAX30102.c    **** 
  80:MAX30102.c    **** #define MAX30102_A_FULL_MASK  	    0xF0
  81:MAX30102.c    **** 
  82:MAX30102.c    **** // Mode configuration commands (page 19)
  83:MAX30102.c    **** #define MAX30102_SHUTDOWN_MASK  	0x7F
  84:MAX30102.c    **** #define MAX30102_SHUTDOWN  		    0x80
  85:MAX30102.c    **** #define MAX30102_WAKEUP  			0x00
  86:MAX30102.c    **** 
  87:MAX30102.c    **** #define MAX30102_RESET_MASK  		0xBF
ARM GAS  C:\Users\nikod\AppData\Local\Temp\ccGwiLMd.s 			page 3


  88:MAX30102.c    **** #define MAX30102_RESET  			0x40
  89:MAX30102.c    **** 
  90:MAX30102.c    **** #define MAX30102_MODE_MASK  		0xF8
  91:MAX30102.c    **** #define MAX30102_MODE_REDONLY  	    0x02
  92:MAX30102.c    **** #define MAX30102_MODE_REDIRONLY  	0x03
  93:MAX30102.c    **** #define MAX30102_MODE_MULTILED  	0x07
  94:MAX30102.c    **** 
  95:MAX30102.c    **** // Particle sensing configuration commands (pgs 19-20)
  96:MAX30102.c    **** #define MAX30102_ADCRANGE_MASK  	0x9F
  97:MAX30102.c    **** #define MAX30102_ADCRANGE_2048  	0x00
  98:MAX30102.c    **** #define MAX30102_ADCRANGE_4096  	0x20
  99:MAX30102.c    **** #define MAX30102_ADCRANGE_8192  	0x40
 100:MAX30102.c    **** #define MAX30102_ADCRANGE_16384  	0x60
 101:MAX30102.c    **** 
 102:MAX30102.c    **** #define MAX30102_SAMPLERATE_MASK    0xE3
 103:MAX30102.c    **** #define MAX30102_SAMPLERATE_50  	0x00
 104:MAX30102.c    **** #define MAX30102_SAMPLERATE_100  	0x04
 105:MAX30102.c    **** #define MAX30102_SAMPLERATE_200  	0x08
 106:MAX30102.c    **** #define MAX30102_SAMPLERATE_400  	0x0C
 107:MAX30102.c    **** #define MAX30102_SAMPLERATE_800  	0x10
 108:MAX30102.c    **** #define MAX30102_SAMPLERATE_1000    0x14
 109:MAX30102.c    **** #define MAX30102_SAMPLERATE_1600    0x18
 110:MAX30102.c    **** #define MAX30102_SAMPLERATE_3200    0x1C
 111:MAX30102.c    **** #define MAX30102_PULSEWIDTH_MASK    0xFC
 112:MAX30102.c    **** #define MAX30102_PULSEWIDTH_69  	0x00
 113:MAX30102.c    **** #define MAX30102_PULSEWIDTH_118 	0x01
 114:MAX30102.c    **** #define MAX30102_PULSEWIDTH_215 	0x02
 115:MAX30102.c    **** #define MAX30102_PULSEWIDTH_411  	0x03
 116:MAX30102.c    **** //Multi-LED Mode configuration (pg 22)
 117:MAX30102.c    **** #define MAX30102_SLOT1_MASK  		0xF8
 118:MAX30102.c    **** #define MAX30102_SLOT2_MASK  		0x8F
 119:MAX30102.c    **** #define MAX30102_SLOT3_MASK  		0xF8
 120:MAX30102.c    **** #define MAX30102_SLOT4_MASK  		0x8F
 121:MAX30102.c    **** 
 122:MAX30102.c    **** #define SLOT_NONE  			    	0x00
 123:MAX30102.c    **** #define SLOT_RED_LED  			    0x01
 124:MAX30102.c    **** #define SLOT_IR_LED  				0x02
 125:MAX30102.c    **** #define SLOT_GREEN_LED  			0x03
 126:MAX30102.c    **** #define SLOT_NONE_PILOT  			0x04
 127:MAX30102.c    **** #define SLOT_RED_PILOT 	    		0x05
 128:MAX30102.c    **** #define SLOT_IR_PILOT    			0x06
 129:MAX30102.c    **** #define SLOT_GREEN_PILOT        	0x07
 130:MAX30102.c    **** 
 131:MAX30102.c    **** #define MAX_30105_EXPECTEDPARTID    0x15
 132:MAX30102.c    **** 
 133:MAX30102.c    **** 
 134:MAX30102.c    **** 
 135:MAX30102.c    **** 
 136:MAX30102.c    **** bool Max_Beginread (unsigned char sladress){
  28              		.loc 1 136 0
  29              		.cfi_startproc
  30              		@ args = 0, pretend = 0, frame = 0
  31              		@ frame_needed = 0, uses_anonymous_args = 0
  32              	.LVL0:
  33 0000 38B5     		push	{r3, r4, r5, lr}
  34              		.cfi_def_cfa_offset 16
  35              		.cfi_offset 3, -16
ARM GAS  C:\Users\nikod\AppData\Local\Temp\ccGwiLMd.s 			page 4


  36              		.cfi_offset 4, -12
  37              		.cfi_offset 5, -8
  38              		.cfi_offset 14, -4
  39 0002 0546     		mov	r5, r0
  40              	.LVL1:
 137:MAX30102.c    ****     unsigned int cont=0;   
  41              		.loc 1 137 0
  42 0004 0024     		movs	r4, #0
  43              	.LVL2:
  44              	.L4:
 138:MAX30102.c    ****     bool out=true;
 139:MAX30102.c    ****     do{
 140:MAX30102.c    ****             cont++;
  45              		.loc 1 140 0
  46 0006 0134     		adds	r4, r4, #1
  47              	.LVL3:
 141:MAX30102.c    ****             if(cont==1000){
  48              		.loc 1 141 0
  49 0008 B4F57A7F 		cmp	r4, #1000
  50 000c 04D1     		bne	.L2
 142:MAX30102.c    ****                 UART_PutString("Tiempo excedido");
  51              		.loc 1 142 0
  52 000e 0648     		ldr	r0, .L6
  53 0010 FFF7FEFF 		bl	UART_PutString
  54              	.LVL4:
 143:MAX30102.c    ****                 out=false;
  55              		.loc 1 143 0
  56 0014 0020     		movs	r0, #0
 144:MAX30102.c    ****                 break;
  57              		.loc 1 144 0
  58 0016 38BD     		pop	{r3, r4, r5, pc}
  59              	.LVL5:
  60              	.L2:
 145:MAX30102.c    ****                 
 146:MAX30102.c    ****             }
 147:MAX30102.c    ****             //Espera mienstras el esclavo le responde
 148:MAX30102.c    ****         }while(I2C_MasterSendStart(sladress, I2C_READ_XFER_MODE)!=I2C_MSTR_NO_ERROR);
  61              		.loc 1 148 0
  62 0018 0121     		movs	r1, #1
  63 001a 2846     		mov	r0, r5
  64 001c FFF7FEFF 		bl	I2C_MasterSendStart
  65              	.LVL6:
  66 0020 0028     		cmp	r0, #0
  67 0022 F0D1     		bne	.L4
 138:MAX30102.c    ****     do{
  68              		.loc 1 138 0
  69 0024 0120     		movs	r0, #1
  70              	.LVL7:
 149:MAX30102.c    ****         return out;
 150:MAX30102.c    **** }      //sladress= direccion del esclavo
  71              		.loc 1 150 0
  72 0026 38BD     		pop	{r3, r4, r5, pc}
  73              	.LVL8:
  74              	.L7:
  75              		.align	2
  76              	.L6:
  77 0028 00000000 		.word	.LC0
ARM GAS  C:\Users\nikod\AppData\Local\Temp\ccGwiLMd.s 			page 5


  78              		.cfi_endproc
  79              	.LFE64:
  80              		.size	Max_Beginread, .-Max_Beginread
  81              		.section	.text.Max_Beginwrite,"ax",%progbits
  82              		.align	2
  83              		.global	Max_Beginwrite
  84              		.thumb
  85              		.thumb_func
  86              		.type	Max_Beginwrite, %function
  87              	Max_Beginwrite:
  88              	.LFB65:
 151:MAX30102.c    **** 
 152:MAX30102.c    **** bool Max_Beginwrite(unsigned char sladress){
  89              		.loc 1 152 0
  90              		.cfi_startproc
  91              		@ args = 0, pretend = 0, frame = 0
  92              		@ frame_needed = 0, uses_anonymous_args = 0
  93              	.LVL9:
  94 0000 38B5     		push	{r3, r4, r5, lr}
  95              		.cfi_def_cfa_offset 16
  96              		.cfi_offset 3, -16
  97              		.cfi_offset 4, -12
  98              		.cfi_offset 5, -8
  99              		.cfi_offset 14, -4
 100 0002 0546     		mov	r5, r0
 101              	.LVL10:
 153:MAX30102.c    ****     unsigned int cont=0;   
 102              		.loc 1 153 0
 103 0004 0024     		movs	r4, #0
 104              	.LVL11:
 105              	.L11:
 154:MAX30102.c    ****     bool out=true;
 155:MAX30102.c    ****     do{
 156:MAX30102.c    ****             cont++;
 106              		.loc 1 156 0
 107 0006 0134     		adds	r4, r4, #1
 108              	.LVL12:
 157:MAX30102.c    ****             if(cont==1000){
 109              		.loc 1 157 0
 110 0008 B4F57A7F 		cmp	r4, #1000
 111 000c 04D1     		bne	.L9
 158:MAX30102.c    ****                 UART_PutString("Tiempo excedido\r\n");
 112              		.loc 1 158 0
 113 000e 0648     		ldr	r0, .L13
 114 0010 FFF7FEFF 		bl	UART_PutString
 115              	.LVL13:
 159:MAX30102.c    ****                 out=false;
 116              		.loc 1 159 0
 117 0014 0020     		movs	r0, #0
 160:MAX30102.c    ****                 break;   
 118              		.loc 1 160 0
 119 0016 38BD     		pop	{r3, r4, r5, pc}
 120              	.LVL14:
 121              	.L9:
 161:MAX30102.c    ****             }
 162:MAX30102.c    ****     }while(I2C_MasterSendStart(sladress, I2C_WRITE_XFER_MODE)!=I2C_MSTR_NO_ERROR);
 122              		.loc 1 162 0
ARM GAS  C:\Users\nikod\AppData\Local\Temp\ccGwiLMd.s 			page 6


 123 0018 0021     		movs	r1, #0
 124 001a 2846     		mov	r0, r5
 125 001c FFF7FEFF 		bl	I2C_MasterSendStart
 126              	.LVL15:
 127 0020 0028     		cmp	r0, #0
 128 0022 F0D1     		bne	.L11
 154:MAX30102.c    ****     do{
 129              		.loc 1 154 0
 130 0024 0120     		movs	r0, #1
 131              	.LVL16:
 163:MAX30102.c    ****     return out;
 164:MAX30102.c    **** }
 132              		.loc 1 164 0
 133 0026 38BD     		pop	{r3, r4, r5, pc}
 134              	.LVL17:
 135              	.L14:
 136              		.align	2
 137              	.L13:
 138 0028 10000000 		.word	.LC1
 139              		.cfi_endproc
 140              	.LFE65:
 141              		.size	Max_Beginwrite, .-Max_Beginwrite
 142              		.section	.text.Max_Read,"ax",%progbits
 143              		.align	2
 144              		.global	Max_Read
 145              		.thumb
 146              		.thumb_func
 147              		.type	Max_Read, %function
 148              	Max_Read:
 149              	.LFB66:
 165:MAX30102.c    **** 
 166:MAX30102.c    **** unsigned char Max_Read(unsigned char adress, unsigned char leer){                   
 150              		.loc 1 166 0
 151              		.cfi_startproc
 152              		@ args = 0, pretend = 0, frame = 0
 153              		@ frame_needed = 0, uses_anonymous_args = 0
 154              	.LVL18:
 155 0000 38B5     		push	{r3, r4, r5, lr}
 156              		.cfi_def_cfa_offset 16
 157              		.cfi_offset 3, -16
 158              		.cfi_offset 4, -12
 159              		.cfi_offset 5, -8
 160              		.cfi_offset 14, -4
 161 0002 0446     		mov	r4, r0
 162 0004 0D46     		mov	r5, r1
 163              	.LVL19:
 167:MAX30102.c    ****     unsigned char data=0;
 168:MAX30102.c    ****     if(Max_Beginwrite(adress)){
 164              		.loc 1 168 0
 165 0006 FFF7FEFF 		bl	Max_Beginwrite
 166              	.LVL20:
 167 000a 68B1     		cbz	r0, .L17
 169:MAX30102.c    ****         I2C_MasterWriteByte(leer);//Pone direccion de memoria que quiere leer  
 168              		.loc 1 169 0
 169 000c 2846     		mov	r0, r5
 170 000e FFF7FEFF 		bl	I2C_MasterWriteByte
 171              	.LVL21:
ARM GAS  C:\Users\nikod\AppData\Local\Temp\ccGwiLMd.s 			page 7


 170:MAX30102.c    ****         I2C_MasterSendRestart(adress, I2C_READ_XFER_MODE); // Re transmite para obtener datos
 172              		.loc 1 170 0
 173 0012 0121     		movs	r1, #1
 174 0014 2046     		mov	r0, r4
 175 0016 FFF7FEFF 		bl	I2C_MasterSendRestart
 176              	.LVL22:
 171:MAX30102.c    ****         data=I2C_MasterReadByte(I2C_NAK_DATA);
 177              		.loc 1 171 0
 178 001a 0020     		movs	r0, #0
 179 001c FFF7FEFF 		bl	I2C_MasterReadByte
 180              	.LVL23:
 181 0020 0446     		mov	r4, r0
 182              	.LVL24:
 172:MAX30102.c    ****         I2C_MasterSendStop();
 183              		.loc 1 172 0
 184 0022 FFF7FEFF 		bl	I2C_MasterSendStop
 185              	.LVL25:
 186 0026 00E0     		b	.L16
 187              	.LVL26:
 188              	.L17:
 167:MAX30102.c    ****     if(Max_Beginwrite(adress)){
 189              		.loc 1 167 0
 190 0028 0024     		movs	r4, #0
 191              	.LVL27:
 192              	.L16:
 173:MAX30102.c    ****     }
 174:MAX30102.c    ****     return data;
 175:MAX30102.c    **** } //adress es el slave adress del dispositivo, leer es la direccion del registro que se desea ver
 193              		.loc 1 175 0
 194 002a 2046     		mov	r0, r4
 195 002c 38BD     		pop	{r3, r4, r5, pc}
 196              		.cfi_endproc
 197              	.LFE66:
 198              		.size	Max_Read, .-Max_Read
 199 002e 00BF     		.section	.text.Max_Write,"ax",%progbits
 200              		.align	2
 201              		.global	Max_Write
 202              		.thumb
 203              		.thumb_func
 204              		.type	Max_Write, %function
 205              	Max_Write:
 206              	.LFB67:
 176:MAX30102.c    **** 
 177:MAX30102.c    **** void Max_Write(char slvadr, unsigned char adress, unsigned char load){
 207              		.loc 1 177 0
 208              		.cfi_startproc
 209              		@ args = 0, pretend = 0, frame = 0
 210              		@ frame_needed = 0, uses_anonymous_args = 0
 211              	.LVL28:
 212 0000 38B5     		push	{r3, r4, r5, lr}
 213              		.cfi_def_cfa_offset 16
 214              		.cfi_offset 3, -16
 215              		.cfi_offset 4, -12
 216              		.cfi_offset 5, -8
 217              		.cfi_offset 14, -4
 218 0002 0D46     		mov	r5, r1
 219 0004 1446     		mov	r4, r2
ARM GAS  C:\Users\nikod\AppData\Local\Temp\ccGwiLMd.s 			page 8


 178:MAX30102.c    ****     if(Max_Beginwrite(slvadr)){
 220              		.loc 1 178 0
 221 0006 FFF7FEFF 		bl	Max_Beginwrite
 222              	.LVL29:
 223 000a 38B1     		cbz	r0, .L19
 179:MAX30102.c    ****         I2C_MasterWriteByte(adress);
 224              		.loc 1 179 0
 225 000c 2846     		mov	r0, r5
 226 000e FFF7FEFF 		bl	I2C_MasterWriteByte
 227              	.LVL30:
 180:MAX30102.c    ****         I2C_MasterWriteByte(load);
 228              		.loc 1 180 0
 229 0012 2046     		mov	r0, r4
 230 0014 FFF7FEFF 		bl	I2C_MasterWriteByte
 231              	.LVL31:
 181:MAX30102.c    ****         I2C_MasterSendStop();
 232              		.loc 1 181 0
 233 0018 FFF7FEFF 		bl	I2C_MasterSendStop
 234              	.LVL32:
 235              	.L19:
 236 001c 38BD     		pop	{r3, r4, r5, pc}
 237              		.cfi_endproc
 238              	.LFE67:
 239              		.size	Max_Write, .-Max_Write
 240 001e 00BF     		.section	.text.bitMask,"ax",%progbits
 241              		.align	2
 242              		.global	bitMask
 243              		.thumb
 244              		.thumb_func
 245              		.type	bitMask, %function
 246              	bitMask:
 247              	.LFB68:
 182:MAX30102.c    ****     }
 183:MAX30102.c    ****     
 184:MAX30102.c    **** }
 185:MAX30102.c    **** 
 186:MAX30102.c    **** void bitMask(unsigned char reg, unsigned char mask, unsigned char thing)
 187:MAX30102.c    **** {
 248              		.loc 1 187 0
 249              		.cfi_startproc
 250              		@ args = 0, pretend = 0, frame = 0
 251              		@ frame_needed = 0, uses_anonymous_args = 0
 252              	.LVL33:
 253 0000 70B5     		push	{r4, r5, r6, lr}
 254              		.cfi_def_cfa_offset 16
 255              		.cfi_offset 4, -16
 256              		.cfi_offset 5, -12
 257              		.cfi_offset 6, -8
 258              		.cfi_offset 14, -4
 259 0002 0546     		mov	r5, r0
 260 0004 0C46     		mov	r4, r1
 261 0006 1646     		mov	r6, r2
 188:MAX30102.c    ****   // Lee el original
 189:MAX30102.c    ****   unsigned char originalContents = Max_Read(MAX30102_ADDRESS, reg);
 262              		.loc 1 189 0
 263 0008 0146     		mov	r1, r0
 264              	.LVL34:
ARM GAS  C:\Users\nikod\AppData\Local\Temp\ccGwiLMd.s 			page 9


 265 000a 5720     		movs	r0, #87
 266              	.LVL35:
 267 000c FFF7FEFF 		bl	Max_Read
 268              	.LVL36:
 190:MAX30102.c    ****   // lo enmascara
 191:MAX30102.c    ****   originalContents = originalContents & mask;
 269              		.loc 1 191 0
 270 0010 00EA0402 		and	r2, r0, r4
 271              	.LVL37:
 192:MAX30102.c    ****   // Escribe de nuevo
 193:MAX30102.c    ****   Max_Write(MAX30102_ADDRESS, reg, originalContents | thing);
 272              		.loc 1 193 0
 273 0014 3243     		orrs	r2, r2, r6
 274              	.LVL38:
 275 0016 2946     		mov	r1, r5
 276 0018 5720     		movs	r0, #87
 277              	.LVL39:
 278 001a FFF7FEFF 		bl	Max_Write
 279              	.LVL40:
 280 001e 70BD     		pop	{r4, r5, r6, pc}
 281              		.cfi_endproc
 282              	.LFE68:
 283              		.size	bitMask, .-bitMask
 284              		.section	.text.softReset,"ax",%progbits
 285              		.align	2
 286              		.global	softReset
 287              		.thumb
 288              		.thumb_func
 289              		.type	softReset, %function
 290              	softReset:
 291              	.LFB69:
 194:MAX30102.c    **** }
 195:MAX30102.c    **** 
 196:MAX30102.c    **** void softReset(void) {
 292              		.loc 1 196 0
 293              		.cfi_startproc
 294              		@ args = 0, pretend = 0, frame = 0
 295              		@ frame_needed = 0, uses_anonymous_args = 0
 296 0000 10B5     		push	{r4, lr}
 297              		.cfi_def_cfa_offset 8
 298              		.cfi_offset 4, -8
 299              		.cfi_offset 14, -4
 197:MAX30102.c    ****   bitMask(MAX30102_MODECONFIG, MAX30102_RESET_MASK, MAX30102_RESET);
 300              		.loc 1 197 0
 301 0002 4022     		movs	r2, #64
 302 0004 BF21     		movs	r1, #191
 303 0006 0920     		movs	r0, #9
 304 0008 FFF7FEFF 		bl	bitMask
 305              	.LVL41:
 198:MAX30102.c    ****   // Timeout after 100ms
 199:MAX30102.c    ****   unsigned char startTime=0;
 306              		.loc 1 199 0
 307 000c 0024     		movs	r4, #0
 200:MAX30102.c    ****   while (startTime < 100)
 308              		.loc 1 200 0
 309 000e 0BE0     		b	.L25
 310              	.LVL42:
ARM GAS  C:\Users\nikod\AppData\Local\Temp\ccGwiLMd.s 			page 10


 311              	.L27:
 312              	.LBB2:
 201:MAX30102.c    ****   {
 202:MAX30102.c    ****     unsigned char response = Max_Read(MAX30102_ADDRESS, MAX30102_MODECONFIG);
 313              		.loc 1 202 0
 314 0010 0921     		movs	r1, #9
 315 0012 5720     		movs	r0, #87
 316 0014 FFF7FEFF 		bl	Max_Read
 317              	.LVL43:
 203:MAX30102.c    ****     if ((response & MAX30102_RESET) == 0) break; //Esta listo
 318              		.loc 1 203 0
 319 0018 10F0400F 		tst	r0, #64
 320 001c 06D0     		beq	.L24
 204:MAX30102.c    ****     startTime++;
 321              		.loc 1 204 0
 322 001e 0134     		adds	r4, r4, #1
 323              	.LVL44:
 324 0020 E4B2     		uxtb	r4, r4
 325              	.LVL45:
 205:MAX30102.c    ****     CyDelay(1); 
 326              		.loc 1 205 0
 327 0022 0120     		movs	r0, #1
 328              	.LVL46:
 329 0024 FFF7FEFF 		bl	CyDelay
 330              	.LVL47:
 331              	.L25:
 332              	.LBE2:
 200:MAX30102.c    ****   {
 333              		.loc 1 200 0
 334 0028 632C     		cmp	r4, #99
 335 002a F1D9     		bls	.L27
 336              	.L24:
 337 002c 10BD     		pop	{r4, pc}
 338              		.cfi_endproc
 339              	.LFE69:
 340              		.size	softReset, .-softReset
 341 002e 00BF     		.section	.text.enablePROXINT,"ax",%progbits
 342              		.align	2
 343              		.global	enablePROXINT
 344              		.thumb
 345              		.thumb_func
 346              		.type	enablePROXINT, %function
 347              	enablePROXINT:
 348              	.LFB70:
 206:MAX30102.c    ****     
 207:MAX30102.c    ****   }
 208:MAX30102.c    **** }
 209:MAX30102.c    **** 
 210:MAX30102.c    **** void enablePROXINT(void) {
 349              		.loc 1 210 0
 350              		.cfi_startproc
 351              		@ args = 0, pretend = 0, frame = 0
 352              		@ frame_needed = 0, uses_anonymous_args = 0
 353 0000 08B5     		push	{r3, lr}
 354              		.cfi_def_cfa_offset 8
 355              		.cfi_offset 3, -8
 356              		.cfi_offset 14, -4
ARM GAS  C:\Users\nikod\AppData\Local\Temp\ccGwiLMd.s 			page 11


 211:MAX30102.c    ****   bitMask(MAX30102_INTENABLE1, MAX30102_INT_PROX_INT_MASK, MAX30102_INT_PROX_INT_ENABLE);
 357              		.loc 1 211 0
 358 0002 1022     		movs	r2, #16
 359 0004 1146     		mov	r1, r2
 360 0006 0220     		movs	r0, #2
 361 0008 FFF7FEFF 		bl	bitMask
 362              	.LVL48:
 363 000c 08BD     		pop	{r3, pc}
 364              		.cfi_endproc
 365              	.LFE70:
 366              		.size	enablePROXINT, .-enablePROXINT
 367 000e 00BF     		.section	.text.setLEDMode,"ax",%progbits
 368              		.align	2
 369              		.global	setLEDMode
 370              		.thumb
 371              		.thumb_func
 372              		.type	setLEDMode, %function
 373              	setLEDMode:
 374              	.LFB71:
 212:MAX30102.c    **** }
 213:MAX30102.c    **** 
 214:MAX30102.c    **** void setLEDMode(unsigned char mode) {
 375              		.loc 1 214 0
 376              		.cfi_startproc
 377              		@ args = 0, pretend = 0, frame = 0
 378              		@ frame_needed = 0, uses_anonymous_args = 0
 379              	.LVL49:
 380 0000 08B5     		push	{r3, lr}
 381              		.cfi_def_cfa_offset 8
 382              		.cfi_offset 3, -8
 383              		.cfi_offset 14, -4
 215:MAX30102.c    ****   // Set which LEDs are used for sampling -- Red only, RED+IR only, or custom.
 216:MAX30102.c    ****   // See datasheet, page 19
 217:MAX30102.c    ****   bitMask(MAX30102_MODECONFIG, MAX30102_MODE_MASK, mode);
 384              		.loc 1 217 0
 385 0002 0246     		mov	r2, r0
 386 0004 F821     		movs	r1, #248
 387 0006 0920     		movs	r0, #9
 388              	.LVL50:
 389 0008 FFF7FEFF 		bl	bitMask
 390              	.LVL51:
 391 000c 08BD     		pop	{r3, pc}
 392              		.cfi_endproc
 393              	.LFE71:
 394              		.size	setLEDMode, .-setLEDMode
 395 000e 00BF     		.section	.text.setADCRange,"ax",%progbits
 396              		.align	2
 397              		.global	setADCRange
 398              		.thumb
 399              		.thumb_func
 400              		.type	setADCRange, %function
 401              	setADCRange:
 402              	.LFB72:
 218:MAX30102.c    **** }
 219:MAX30102.c    **** 
 220:MAX30102.c    **** 
 221:MAX30102.c    **** 
ARM GAS  C:\Users\nikod\AppData\Local\Temp\ccGwiLMd.s 			page 12


 222:MAX30102.c    **** void setADCRange(unsigned char adcRange) {
 403              		.loc 1 222 0
 404              		.cfi_startproc
 405              		@ args = 0, pretend = 0, frame = 0
 406              		@ frame_needed = 0, uses_anonymous_args = 0
 407              	.LVL52:
 408 0000 08B5     		push	{r3, lr}
 409              		.cfi_def_cfa_offset 8
 410              		.cfi_offset 3, -8
 411              		.cfi_offset 14, -4
 223:MAX30102.c    ****   // adcRange: one of MAX30102_ADCRANGE_2048, _4096, _8192, _16384
 224:MAX30102.c    ****   bitMask(MAX30102_PARTICLECONFIG,MAX30102_ADCRANGE_MASK, adcRange);
 412              		.loc 1 224 0
 413 0002 0246     		mov	r2, r0
 414 0004 9F21     		movs	r1, #159
 415 0006 0A20     		movs	r0, #10
 416              	.LVL53:
 417 0008 FFF7FEFF 		bl	bitMask
 418              	.LVL54:
 419 000c 08BD     		pop	{r3, pc}
 420              		.cfi_endproc
 421              	.LFE72:
 422              		.size	setADCRange, .-setADCRange
 423 000e 00BF     		.section	.text.setSampleRate,"ax",%progbits
 424              		.align	2
 425              		.global	setSampleRate
 426              		.thumb
 427              		.thumb_func
 428              		.type	setSampleRate, %function
 429              	setSampleRate:
 430              	.LFB73:
 225:MAX30102.c    **** }
 226:MAX30102.c    **** 
 227:MAX30102.c    **** void setSampleRate(unsigned char sampleRate) {
 431              		.loc 1 227 0
 432              		.cfi_startproc
 433              		@ args = 0, pretend = 0, frame = 0
 434              		@ frame_needed = 0, uses_anonymous_args = 0
 435              	.LVL55:
 436 0000 08B5     		push	{r3, lr}
 437              		.cfi_def_cfa_offset 8
 438              		.cfi_offset 3, -8
 439              		.cfi_offset 14, -4
 228:MAX30102.c    ****   // sampleRate: one of MAX30102_SAMPLERATE_50, _100, _200, _400, _800, _1000, _1600, _3200
 229:MAX30102.c    ****   bitMask(MAX30102_PARTICLECONFIG, MAX30102_SAMPLERATE_MASK, sampleRate);
 440              		.loc 1 229 0
 441 0002 0246     		mov	r2, r0
 442 0004 E321     		movs	r1, #227
 443 0006 0A20     		movs	r0, #10
 444              	.LVL56:
 445 0008 FFF7FEFF 		bl	bitMask
 446              	.LVL57:
 447 000c 08BD     		pop	{r3, pc}
 448              		.cfi_endproc
 449              	.LFE73:
 450              		.size	setSampleRate, .-setSampleRate
 451 000e 00BF     		.section	.text.setPulseWidth,"ax",%progbits
ARM GAS  C:\Users\nikod\AppData\Local\Temp\ccGwiLMd.s 			page 13


 452              		.align	2
 453              		.global	setPulseWidth
 454              		.thumb
 455              		.thumb_func
 456              		.type	setPulseWidth, %function
 457              	setPulseWidth:
 458              	.LFB74:
 230:MAX30102.c    **** }
 231:MAX30102.c    **** 
 232:MAX30102.c    **** void setPulseWidth(unsigned char pulseWidth) {
 459              		.loc 1 232 0
 460              		.cfi_startproc
 461              		@ args = 0, pretend = 0, frame = 0
 462              		@ frame_needed = 0, uses_anonymous_args = 0
 463              	.LVL58:
 464 0000 08B5     		push	{r3, lr}
 465              		.cfi_def_cfa_offset 8
 466              		.cfi_offset 3, -8
 467              		.cfi_offset 14, -4
 233:MAX30102.c    ****   // pulseWidth: one of MAX30102_PULSEWIDTH_69, _188, _215, _411
 234:MAX30102.c    ****   bitMask(MAX30102_PARTICLECONFIG, MAX30102_PULSEWIDTH_MASK, pulseWidth);
 468              		.loc 1 234 0
 469 0002 0246     		mov	r2, r0
 470 0004 FC21     		movs	r1, #252
 471 0006 0A20     		movs	r0, #10
 472              	.LVL59:
 473 0008 FFF7FEFF 		bl	bitMask
 474              	.LVL60:
 475 000c 08BD     		pop	{r3, pc}
 476              		.cfi_endproc
 477              	.LFE74:
 478              		.size	setPulseWidth, .-setPulseWidth
 479 000e 00BF     		.section	.text.setPulseAmplitudeRed,"ax",%progbits
 480              		.align	2
 481              		.global	setPulseAmplitudeRed
 482              		.thumb
 483              		.thumb_func
 484              		.type	setPulseAmplitudeRed, %function
 485              	setPulseAmplitudeRed:
 486              	.LFB75:
 235:MAX30102.c    **** }
 236:MAX30102.c    **** 
 237:MAX30102.c    **** // NOTE: Amplitude values: 0x00 = 0mA, 0x7F = 25.4mA, 0xFF = 50mA (typical)
 238:MAX30102.c    **** // See datasheet, page 21
 239:MAX30102.c    **** void setPulseAmplitudeRed(unsigned char amplitude) {
 487              		.loc 1 239 0
 488              		.cfi_startproc
 489              		@ args = 0, pretend = 0, frame = 0
 490              		@ frame_needed = 0, uses_anonymous_args = 0
 491              	.LVL61:
 492 0000 08B5     		push	{r3, lr}
 493              		.cfi_def_cfa_offset 8
 494              		.cfi_offset 3, -8
 495              		.cfi_offset 14, -4
 240:MAX30102.c    ****   Max_Write(MAX30102_ADDRESS, MAX30102_LED1_PULSEAMP, amplitude);
 496              		.loc 1 240 0
 497 0002 0246     		mov	r2, r0
ARM GAS  C:\Users\nikod\AppData\Local\Temp\ccGwiLMd.s 			page 14


 498 0004 0C21     		movs	r1, #12
 499 0006 5720     		movs	r0, #87
 500              	.LVL62:
 501 0008 FFF7FEFF 		bl	Max_Write
 502              	.LVL63:
 503 000c 08BD     		pop	{r3, pc}
 504              		.cfi_endproc
 505              	.LFE75:
 506              		.size	setPulseAmplitudeRed, .-setPulseAmplitudeRed
 507 000e 00BF     		.section	.text.setPulseAmplitudeIR,"ax",%progbits
 508              		.align	2
 509              		.global	setPulseAmplitudeIR
 510              		.thumb
 511              		.thumb_func
 512              		.type	setPulseAmplitudeIR, %function
 513              	setPulseAmplitudeIR:
 514              	.LFB76:
 241:MAX30102.c    **** }
 242:MAX30102.c    **** 
 243:MAX30102.c    **** void setPulseAmplitudeIR(unsigned char amplitude) {
 515              		.loc 1 243 0
 516              		.cfi_startproc
 517              		@ args = 0, pretend = 0, frame = 0
 518              		@ frame_needed = 0, uses_anonymous_args = 0
 519              	.LVL64:
 520 0000 08B5     		push	{r3, lr}
 521              		.cfi_def_cfa_offset 8
 522              		.cfi_offset 3, -8
 523              		.cfi_offset 14, -4
 244:MAX30102.c    ****   Max_Write(MAX30102_ADDRESS, MAX30102_LED2_PULSEAMP, amplitude);
 524              		.loc 1 244 0
 525 0002 0246     		mov	r2, r0
 526 0004 0D21     		movs	r1, #13
 527 0006 5720     		movs	r0, #87
 528              	.LVL65:
 529 0008 FFF7FEFF 		bl	Max_Write
 530              	.LVL66:
 531 000c 08BD     		pop	{r3, pc}
 532              		.cfi_endproc
 533              	.LFE76:
 534              		.size	setPulseAmplitudeIR, .-setPulseAmplitudeIR
 535 000e 00BF     		.section	.text.setPulseAmplitudeGreen,"ax",%progbits
 536              		.align	2
 537              		.global	setPulseAmplitudeGreen
 538              		.thumb
 539              		.thumb_func
 540              		.type	setPulseAmplitudeGreen, %function
 541              	setPulseAmplitudeGreen:
 542              	.LFB77:
 245:MAX30102.c    **** }
 246:MAX30102.c    **** 
 247:MAX30102.c    **** void setPulseAmplitudeGreen(unsigned char amplitude) {
 543              		.loc 1 247 0
 544              		.cfi_startproc
 545              		@ args = 0, pretend = 0, frame = 0
 546              		@ frame_needed = 0, uses_anonymous_args = 0
 547              	.LVL67:
ARM GAS  C:\Users\nikod\AppData\Local\Temp\ccGwiLMd.s 			page 15


 548 0000 08B5     		push	{r3, lr}
 549              		.cfi_def_cfa_offset 8
 550              		.cfi_offset 3, -8
 551              		.cfi_offset 14, -4
 248:MAX30102.c    ****   Max_Write(MAX30102_ADDRESS, MAX30102_LED3_PULSEAMP, amplitude);
 552              		.loc 1 248 0
 553 0002 0246     		mov	r2, r0
 554 0004 0E21     		movs	r1, #14
 555 0006 5720     		movs	r0, #87
 556              	.LVL68:
 557 0008 FFF7FEFF 		bl	Max_Write
 558              	.LVL69:
 559 000c 08BD     		pop	{r3, pc}
 560              		.cfi_endproc
 561              	.LFE77:
 562              		.size	setPulseAmplitudeGreen, .-setPulseAmplitudeGreen
 563 000e 00BF     		.section	.text.setPulseAmplitudeProximity,"ax",%progbits
 564              		.align	2
 565              		.global	setPulseAmplitudeProximity
 566              		.thumb
 567              		.thumb_func
 568              		.type	setPulseAmplitudeProximity, %function
 569              	setPulseAmplitudeProximity:
 570              	.LFB78:
 249:MAX30102.c    **** }
 250:MAX30102.c    **** 
 251:MAX30102.c    **** void setPulseAmplitudeProximity(unsigned char amplitude) {
 571              		.loc 1 251 0
 572              		.cfi_startproc
 573              		@ args = 0, pretend = 0, frame = 0
 574              		@ frame_needed = 0, uses_anonymous_args = 0
 575              	.LVL70:
 576 0000 08B5     		push	{r3, lr}
 577              		.cfi_def_cfa_offset 8
 578              		.cfi_offset 3, -8
 579              		.cfi_offset 14, -4
 252:MAX30102.c    ****   Max_Write(MAX30102_ADDRESS, MAX30102_LED_PROX_AMP, amplitude);
 580              		.loc 1 252 0
 581 0002 0246     		mov	r2, r0
 582 0004 1021     		movs	r1, #16
 583 0006 5720     		movs	r0, #87
 584              	.LVL71:
 585 0008 FFF7FEFF 		bl	Max_Write
 586              	.LVL72:
 587 000c 08BD     		pop	{r3, pc}
 588              		.cfi_endproc
 589              	.LFE78:
 590              		.size	setPulseAmplitudeProximity, .-setPulseAmplitudeProximity
 591 000e 00BF     		.section	.text.setProximityThreshold,"ax",%progbits
 592              		.align	2
 593              		.global	setProximityThreshold
 594              		.thumb
 595              		.thumb_func
 596              		.type	setProximityThreshold, %function
 597              	setProximityThreshold:
 598              	.LFB79:
 253:MAX30102.c    **** }
ARM GAS  C:\Users\nikod\AppData\Local\Temp\ccGwiLMd.s 			page 16


 254:MAX30102.c    **** 
 255:MAX30102.c    **** void setProximityThreshold(unsigned char threshMSB) {
 599              		.loc 1 255 0
 600              		.cfi_startproc
 601              		@ args = 0, pretend = 0, frame = 0
 602              		@ frame_needed = 0, uses_anonymous_args = 0
 603              	.LVL73:
 604 0000 08B5     		push	{r3, lr}
 605              		.cfi_def_cfa_offset 8
 606              		.cfi_offset 3, -8
 607              		.cfi_offset 14, -4
 256:MAX30102.c    ****   // Set the IR ADC count that will trigger the beginning of particle-sensing mode.
 257:MAX30102.c    ****   // The threshMSB signifies only the 8 most significant-bits of the ADC count.
 258:MAX30102.c    ****   // See datasheet, page 24.
 259:MAX30102.c    ****   Max_Write(MAX30102_ADDRESS, MAX30102_PROXINTTHRESH, threshMSB);
 608              		.loc 1 259 0
 609 0002 0246     		mov	r2, r0
 610 0004 3021     		movs	r1, #48
 611 0006 5720     		movs	r0, #87
 612              	.LVL74:
 613 0008 FFF7FEFF 		bl	Max_Write
 614              	.LVL75:
 615 000c 08BD     		pop	{r3, pc}
 616              		.cfi_endproc
 617              	.LFE79:
 618              		.size	setProximityThreshold, .-setProximityThreshold
 619 000e 00BF     		.section	.text.setFIFOAverage,"ax",%progbits
 620              		.align	2
 621              		.global	setFIFOAverage
 622              		.thumb
 623              		.thumb_func
 624              		.type	setFIFOAverage, %function
 625              	setFIFOAverage:
 626              	.LFB80:
 260:MAX30102.c    **** }
 261:MAX30102.c    **** 
 262:MAX30102.c    **** //
 263:MAX30102.c    **** // FIFO Configuration
 264:MAX30102.c    **** //
 265:MAX30102.c    **** 
 266:MAX30102.c    **** //Set sample average (Table 3, Page 18)
 267:MAX30102.c    **** void setFIFOAverage(unsigned char numberOfSamples) {
 627              		.loc 1 267 0
 628              		.cfi_startproc
 629              		@ args = 0, pretend = 0, frame = 0
 630              		@ frame_needed = 0, uses_anonymous_args = 0
 631              	.LVL76:
 632 0000 08B5     		push	{r3, lr}
 633              		.cfi_def_cfa_offset 8
 634              		.cfi_offset 3, -8
 635              		.cfi_offset 14, -4
 268:MAX30102.c    ****   bitMask(MAX30102_FIFOCONFIG, MAX30102_SAMPLEAVG_MASK, numberOfSamples);
 636              		.loc 1 268 0
 637 0002 0246     		mov	r2, r0
 638 0004 E021     		movs	r1, #224
 639 0006 0820     		movs	r0, #8
 640              	.LVL77:
ARM GAS  C:\Users\nikod\AppData\Local\Temp\ccGwiLMd.s 			page 17


 641 0008 FFF7FEFF 		bl	bitMask
 642              	.LVL78:
 643 000c 08BD     		pop	{r3, pc}
 644              		.cfi_endproc
 645              	.LFE80:
 646              		.size	setFIFOAverage, .-setFIFOAverage
 647 000e 00BF     		.section	.text.clearFIFO,"ax",%progbits
 648              		.align	2
 649              		.global	clearFIFO
 650              		.thumb
 651              		.thumb_func
 652              		.type	clearFIFO, %function
 653              	clearFIFO:
 654              	.LFB81:
 269:MAX30102.c    **** }
 270:MAX30102.c    **** 
 271:MAX30102.c    **** //Resets all points to start in a known state
 272:MAX30102.c    **** //Page 15 recommends clearing FIFO before beginning a read
 273:MAX30102.c    **** void clearFIFO(void) {
 655              		.loc 1 273 0
 656              		.cfi_startproc
 657              		@ args = 0, pretend = 0, frame = 0
 658              		@ frame_needed = 0, uses_anonymous_args = 0
 659 0000 08B5     		push	{r3, lr}
 660              		.cfi_def_cfa_offset 8
 661              		.cfi_offset 3, -8
 662              		.cfi_offset 14, -4
 274:MAX30102.c    ****   Max_Write(MAX30102_ADDRESS, MAX30102_FIFOWRITEPTR, 0);
 663              		.loc 1 274 0
 664 0002 0022     		movs	r2, #0
 665 0004 0421     		movs	r1, #4
 666 0006 5720     		movs	r0, #87
 667 0008 FFF7FEFF 		bl	Max_Write
 668              	.LVL79:
 275:MAX30102.c    ****   Max_Write(MAX30102_ADDRESS, MAX30102_FIFOOVERFLOW, 0);
 669              		.loc 1 275 0
 670 000c 0022     		movs	r2, #0
 671 000e 0521     		movs	r1, #5
 672 0010 5720     		movs	r0, #87
 673 0012 FFF7FEFF 		bl	Max_Write
 674              	.LVL80:
 276:MAX30102.c    ****   Max_Write(MAX30102_ADDRESS, MAX30102_FIFOREADPTR, 0);
 675              		.loc 1 276 0
 676 0016 0022     		movs	r2, #0
 677 0018 0621     		movs	r1, #6
 678 001a 5720     		movs	r0, #87
 679 001c FFF7FEFF 		bl	Max_Write
 680              	.LVL81:
 681 0020 08BD     		pop	{r3, pc}
 682              		.cfi_endproc
 683              	.LFE81:
 684              		.size	clearFIFO, .-clearFIFO
 685 0022 00BF     		.section	.text.enableFIFORollover,"ax",%progbits
 686              		.align	2
 687              		.global	enableFIFORollover
 688              		.thumb
 689              		.thumb_func
ARM GAS  C:\Users\nikod\AppData\Local\Temp\ccGwiLMd.s 			page 18


 690              		.type	enableFIFORollover, %function
 691              	enableFIFORollover:
 692              	.LFB82:
 277:MAX30102.c    **** }
 278:MAX30102.c    **** 
 279:MAX30102.c    **** //Enable roll over if FIFO over flows
 280:MAX30102.c    **** void enableFIFORollover(void) {
 693              		.loc 1 280 0
 694              		.cfi_startproc
 695              		@ args = 0, pretend = 0, frame = 0
 696              		@ frame_needed = 0, uses_anonymous_args = 0
 697 0000 08B5     		push	{r3, lr}
 698              		.cfi_def_cfa_offset 8
 699              		.cfi_offset 3, -8
 700              		.cfi_offset 14, -4
 281:MAX30102.c    ****   bitMask(MAX30102_FIFOCONFIG, MAX30102_ROLLOVER_MASK, MAX30102_ROLLOVER_ENABLE);
 701              		.loc 1 281 0
 702 0002 1022     		movs	r2, #16
 703 0004 EF21     		movs	r1, #239
 704 0006 0820     		movs	r0, #8
 705 0008 FFF7FEFF 		bl	bitMask
 706              	.LVL82:
 707 000c 08BD     		pop	{r3, pc}
 708              		.cfi_endproc
 709              	.LFE82:
 710              		.size	enableFIFORollover, .-enableFIFORollover
 711 000e 00BF     		.section	.text.disableFIFORollover,"ax",%progbits
 712              		.align	2
 713              		.global	disableFIFORollover
 714              		.thumb
 715              		.thumb_func
 716              		.type	disableFIFORollover, %function
 717              	disableFIFORollover:
 718              	.LFB83:
 282:MAX30102.c    **** }
 283:MAX30102.c    **** 
 284:MAX30102.c    **** //Disable roll over if FIFO over flows
 285:MAX30102.c    **** void disableFIFORollover(void) {
 719              		.loc 1 285 0
 720              		.cfi_startproc
 721              		@ args = 0, pretend = 0, frame = 0
 722              		@ frame_needed = 0, uses_anonymous_args = 0
 723 0000 08B5     		push	{r3, lr}
 724              		.cfi_def_cfa_offset 8
 725              		.cfi_offset 3, -8
 726              		.cfi_offset 14, -4
 286:MAX30102.c    ****   bitMask(MAX30102_FIFOCONFIG, MAX30102_ROLLOVER_MASK, MAX30102_ROLLOVER_DISABLE);
 727              		.loc 1 286 0
 728 0002 0022     		movs	r2, #0
 729 0004 EF21     		movs	r1, #239
 730 0006 0820     		movs	r0, #8
 731 0008 FFF7FEFF 		bl	bitMask
 732              	.LVL83:
 733 000c 08BD     		pop	{r3, pc}
 734              		.cfi_endproc
 735              	.LFE83:
 736              		.size	disableFIFORollover, .-disableFIFORollover
ARM GAS  C:\Users\nikod\AppData\Local\Temp\ccGwiLMd.s 			page 19


 737 000e 00BF     		.section	.text.setFIFOAlmostFull,"ax",%progbits
 738              		.align	2
 739              		.global	setFIFOAlmostFull
 740              		.thumb
 741              		.thumb_func
 742              		.type	setFIFOAlmostFull, %function
 743              	setFIFOAlmostFull:
 744              	.LFB84:
 287:MAX30102.c    **** }
 288:MAX30102.c    **** 
 289:MAX30102.c    **** //Set number of samples to trigger the almost full interrupt (Page 18)
 290:MAX30102.c    **** //Power on default is 32 samples
 291:MAX30102.c    **** //Note it is reverse: 0x00 is 32 samples, 0x0F is 17 samples
 292:MAX30102.c    **** void setFIFOAlmostFull(unsigned char numberOfSamples) {
 745              		.loc 1 292 0
 746              		.cfi_startproc
 747              		@ args = 0, pretend = 0, frame = 0
 748              		@ frame_needed = 0, uses_anonymous_args = 0
 749              	.LVL84:
 750 0000 08B5     		push	{r3, lr}
 751              		.cfi_def_cfa_offset 8
 752              		.cfi_offset 3, -8
 753              		.cfi_offset 14, -4
 293:MAX30102.c    ****   bitMask(MAX30102_FIFOCONFIG, MAX30102_A_FULL_MASK, numberOfSamples);
 754              		.loc 1 293 0
 755 0002 0246     		mov	r2, r0
 756 0004 F021     		movs	r1, #240
 757 0006 0820     		movs	r0, #8
 758              	.LVL85:
 759 0008 FFF7FEFF 		bl	bitMask
 760              	.LVL86:
 761 000c 08BD     		pop	{r3, pc}
 762              		.cfi_endproc
 763              	.LFE84:
 764              		.size	setFIFOAlmostFull, .-setFIFOAlmostFull
 765 000e 00BF     		.section	.text.getWritePointer,"ax",%progbits
 766              		.align	2
 767              		.global	getWritePointer
 768              		.thumb
 769              		.thumb_func
 770              		.type	getWritePointer, %function
 771              	getWritePointer:
 772              	.LFB85:
 294:MAX30102.c    **** }
 295:MAX30102.c    **** 
 296:MAX30102.c    **** //Read the FIFO Write Pointer
 297:MAX30102.c    **** unsigned char getWritePointer(void) {
 773              		.loc 1 297 0
 774              		.cfi_startproc
 775              		@ args = 0, pretend = 0, frame = 0
 776              		@ frame_needed = 0, uses_anonymous_args = 0
 777 0000 08B5     		push	{r3, lr}
 778              		.cfi_def_cfa_offset 8
 779              		.cfi_offset 3, -8
 780              		.cfi_offset 14, -4
 298:MAX30102.c    ****   return (Max_Read(MAX30102_ADDRESS, MAX30102_FIFOWRITEPTR));
 781              		.loc 1 298 0
ARM GAS  C:\Users\nikod\AppData\Local\Temp\ccGwiLMd.s 			page 20


 782 0002 0421     		movs	r1, #4
 783 0004 5720     		movs	r0, #87
 784 0006 FFF7FEFF 		bl	Max_Read
 785              	.LVL87:
 299:MAX30102.c    **** }
 786              		.loc 1 299 0
 787 000a 08BD     		pop	{r3, pc}
 788              		.cfi_endproc
 789              	.LFE85:
 790              		.size	getWritePointer, .-getWritePointer
 791              		.section	.text.getReadPointer,"ax",%progbits
 792              		.align	2
 793              		.global	getReadPointer
 794              		.thumb
 795              		.thumb_func
 796              		.type	getReadPointer, %function
 797              	getReadPointer:
 798              	.LFB86:
 300:MAX30102.c    **** 
 301:MAX30102.c    **** //Read the FIFO Read Pointer
 302:MAX30102.c    **** unsigned char getReadPointer(void) {
 799              		.loc 1 302 0
 800              		.cfi_startproc
 801              		@ args = 0, pretend = 0, frame = 0
 802              		@ frame_needed = 0, uses_anonymous_args = 0
 803 0000 08B5     		push	{r3, lr}
 804              		.cfi_def_cfa_offset 8
 805              		.cfi_offset 3, -8
 806              		.cfi_offset 14, -4
 303:MAX30102.c    ****   return (Max_Read(MAX30102_ADDRESS, MAX30102_FIFOREADPTR));
 807              		.loc 1 303 0
 808 0002 0621     		movs	r1, #6
 809 0004 5720     		movs	r0, #87
 810 0006 FFF7FEFF 		bl	Max_Read
 811              	.LVL88:
 304:MAX30102.c    **** }
 812              		.loc 1 304 0
 813 000a 08BD     		pop	{r3, pc}
 814              		.cfi_endproc
 815              	.LFE86:
 816              		.size	getReadPointer, .-getReadPointer
 817              		.section	.text.enableSlot,"ax",%progbits
 818              		.align	2
 819              		.global	enableSlot
 820              		.thumb
 821              		.thumb_func
 822              		.type	enableSlot, %function
 823              	enableSlot:
 824              	.LFB87:
 305:MAX30102.c    **** 
 306:MAX30102.c    **** void enableSlot(unsigned char slotNumber, unsigned char device) {
 825              		.loc 1 306 0
 826              		.cfi_startproc
 827              		@ args = 0, pretend = 0, frame = 0
 828              		@ frame_needed = 0, uses_anonymous_args = 0
 829              	.LVL89:
 830 0000 08B5     		push	{r3, lr}
ARM GAS  C:\Users\nikod\AppData\Local\Temp\ccGwiLMd.s 			page 21


 831              		.cfi_def_cfa_offset 8
 832              		.cfi_offset 3, -8
 833              		.cfi_offset 14, -4
 307:MAX30102.c    **** 
 308:MAX30102.c    **** 
 309:MAX30102.c    ****   switch (slotNumber) {
 834              		.loc 1 309 0
 835 0002 0138     		subs	r0, r0, #1
 836              	.LVL90:
 837 0004 0328     		cmp	r0, #3
 838 0006 1ED8     		bhi	.L63
 839 0008 DFE800F0 		tbb	[pc, r0]
 840              	.L66:
 841 000c 02       		.byte	(.L65-.L66)/2
 842 000d 08       		.byte	(.L67-.L66)/2
 843 000e 10       		.byte	(.L68-.L66)/2
 844 000f 16       		.byte	(.L69-.L66)/2
 845              		.p2align 1
 846              	.L65:
 310:MAX30102.c    ****     case (1):
 311:MAX30102.c    ****       bitMask(MAX30102_MULTILEDCONFIG1, MAX30102_SLOT1_MASK, device);
 847              		.loc 1 311 0
 848 0010 0A46     		mov	r2, r1
 849 0012 F821     		movs	r1, #248
 850              	.LVL91:
 851 0014 1120     		movs	r0, #17
 852 0016 FFF7FEFF 		bl	bitMask
 853              	.LVL92:
 312:MAX30102.c    ****       break;
 854              		.loc 1 312 0
 855 001a 08BD     		pop	{r3, pc}
 856              	.LVL93:
 857              	.L67:
 313:MAX30102.c    ****     case (2):
 314:MAX30102.c    ****       bitMask(MAX30102_MULTILEDCONFIG1, MAX30102_SLOT2_MASK, device << 4);
 858              		.loc 1 314 0
 859 001c 0A01     		lsls	r2, r1, #4
 860 001e 02F0F002 		and	r2, r2, #240
 861 0022 8F21     		movs	r1, #143
 862              	.LVL94:
 863 0024 1120     		movs	r0, #17
 864 0026 FFF7FEFF 		bl	bitMask
 865              	.LVL95:
 315:MAX30102.c    ****       break;
 866              		.loc 1 315 0
 867 002a 08BD     		pop	{r3, pc}
 868              	.LVL96:
 869              	.L68:
 316:MAX30102.c    ****     case (3):
 317:MAX30102.c    ****       bitMask(MAX30102_MULTILEDCONFIG2, MAX30102_SLOT3_MASK, device);
 870              		.loc 1 317 0
 871 002c 0A46     		mov	r2, r1
 872 002e F821     		movs	r1, #248
 873              	.LVL97:
 874 0030 1220     		movs	r0, #18
 875 0032 FFF7FEFF 		bl	bitMask
 876              	.LVL98:
ARM GAS  C:\Users\nikod\AppData\Local\Temp\ccGwiLMd.s 			page 22


 318:MAX30102.c    ****       break;
 877              		.loc 1 318 0
 878 0036 08BD     		pop	{r3, pc}
 879              	.LVL99:
 880              	.L69:
 319:MAX30102.c    ****     case (4):
 320:MAX30102.c    ****       bitMask(MAX30102_MULTILEDCONFIG2, MAX30102_SLOT4_MASK, device << 4);
 881              		.loc 1 320 0
 882 0038 0A01     		lsls	r2, r1, #4
 883 003a 02F0F002 		and	r2, r2, #240
 884 003e 8F21     		movs	r1, #143
 885              	.LVL100:
 886 0040 1220     		movs	r0, #18
 887 0042 FFF7FEFF 		bl	bitMask
 888              	.LVL101:
 889              	.L63:
 890 0046 08BD     		pop	{r3, pc}
 891              		.cfi_endproc
 892              	.LFE87:
 893              		.size	enableSlot, .-enableSlot
 894              		.section	.text.disableSlots,"ax",%progbits
 895              		.align	2
 896              		.global	disableSlots
 897              		.thumb
 898              		.thumb_func
 899              		.type	disableSlots, %function
 900              	disableSlots:
 901              	.LFB88:
 321:MAX30102.c    ****       break;
 322:MAX30102.c    ****     default:
 323:MAX30102.c    ****       //Shouldn't be here!
 324:MAX30102.c    ****       break;
 325:MAX30102.c    ****   }
 326:MAX30102.c    **** }
 327:MAX30102.c    **** 
 328:MAX30102.c    **** //Clears all slot assignments
 329:MAX30102.c    **** void disableSlots(void) {
 902              		.loc 1 329 0
 903              		.cfi_startproc
 904              		@ args = 0, pretend = 0, frame = 0
 905              		@ frame_needed = 0, uses_anonymous_args = 0
 906 0000 08B5     		push	{r3, lr}
 907              		.cfi_def_cfa_offset 8
 908              		.cfi_offset 3, -8
 909              		.cfi_offset 14, -4
 330:MAX30102.c    ****   Max_Write(MAX30102_ADDRESS, MAX30102_MULTILEDCONFIG1, 0);
 910              		.loc 1 330 0
 911 0002 0022     		movs	r2, #0
 912 0004 1121     		movs	r1, #17
 913 0006 5720     		movs	r0, #87
 914 0008 FFF7FEFF 		bl	Max_Write
 915              	.LVL102:
 331:MAX30102.c    ****   Max_Write(MAX30102_ADDRESS, MAX30102_MULTILEDCONFIG2, 0);
 916              		.loc 1 331 0
 917 000c 0022     		movs	r2, #0
 918 000e 1221     		movs	r1, #18
 919 0010 5720     		movs	r0, #87
ARM GAS  C:\Users\nikod\AppData\Local\Temp\ccGwiLMd.s 			page 23


 920 0012 FFF7FEFF 		bl	Max_Write
 921              	.LVL103:
 922 0016 08BD     		pop	{r3, pc}
 923              		.cfi_endproc
 924              	.LFE88:
 925              		.size	disableSlots, .-disableSlots
 926              		.section	.text.Max_Init,"ax",%progbits
 927              		.align	2
 928              		.global	Max_Init
 929              		.thumb
 930              		.thumb_func
 931              		.type	Max_Init, %function
 932              	Max_Init:
 933              	.LFB89:
 332:MAX30102.c    **** }
 333:MAX30102.c    **** 
 334:MAX30102.c    **** 
 335:MAX30102.c    **** void Max_Init(unsigned char powerLevel, unsigned char sampleAverage, unsigned char ledMode, int sam
 934              		.loc 1 335 0
 935              		.cfi_startproc
 936              		@ args = 8, pretend = 0, frame = 0
 937              		@ frame_needed = 0, uses_anonymous_args = 0
 938              	.LVL104:
 939 0000 2DE9F843 		push	{r3, r4, r5, r6, r7, r8, r9, lr}
 940              		.cfi_def_cfa_offset 32
 941              		.cfi_offset 3, -32
 942              		.cfi_offset 4, -28
 943              		.cfi_offset 5, -24
 944              		.cfi_offset 6, -20
 945              		.cfi_offset 7, -16
 946              		.cfi_offset 8, -12
 947              		.cfi_offset 9, -8
 948              		.cfi_offset 14, -4
 949 0004 0646     		mov	r6, r0
 950 0006 0D46     		mov	r5, r1
 951 0008 1446     		mov	r4, r2
 952 000a 1F46     		mov	r7, r3
 953 000c DDF82080 		ldr	r8, [sp, #32]
 954 0010 DDF82490 		ldr	r9, [sp, #36]
 336:MAX30102.c    ****   I2C_Start();
 955              		.loc 1 336 0
 956 0014 FFF7FEFF 		bl	I2C_Start
 957              	.LVL105:
 337:MAX30102.c    ****   softReset();  //Reset toda la configuracion
 958              		.loc 1 337 0
 959 0018 FFF7FEFF 		bl	softReset
 960              	.LVL106:
 338:MAX30102.c    ****   //FIFO Configuration
 339:MAX30102.c    ****   //-=-=-=-=-=-=-=-=-=-=-=-=-=-=-=-=-=-=-=-=-=-=-=-=-
 340:MAX30102.c    ****   //The chip will average multiple samples of same type together if you wish
 341:MAX30102.c    ****   if (sampleAverage == 1) setFIFOAverage(MAX30102_SAMPLEAVG_1); //No averaging per FIFO record
 961              		.loc 1 341 0
 962 001c 012D     		cmp	r5, #1
 963 001e 03D1     		bne	.L74
 964              		.loc 1 341 0 is_stmt 0 discriminator 1
 965 0020 0020     		movs	r0, #0
 966 0022 FFF7FEFF 		bl	setFIFOAverage
ARM GAS  C:\Users\nikod\AppData\Local\Temp\ccGwiLMd.s 			page 24


 967              	.LVL107:
 968 0026 20E0     		b	.L75
 969              	.L74:
 342:MAX30102.c    ****   else if (sampleAverage == 2) setFIFOAverage(MAX30102_SAMPLEAVG_2);
 970              		.loc 1 342 0 is_stmt 1
 971 0028 022D     		cmp	r5, #2
 972 002a 03D1     		bne	.L76
 973              		.loc 1 342 0 is_stmt 0 discriminator 1
 974 002c 2020     		movs	r0, #32
 975 002e FFF7FEFF 		bl	setFIFOAverage
 976              	.LVL108:
 977 0032 1AE0     		b	.L75
 978              	.L76:
 343:MAX30102.c    ****   else if (sampleAverage == 4) setFIFOAverage(MAX30102_SAMPLEAVG_4);
 979              		.loc 1 343 0 is_stmt 1
 980 0034 042D     		cmp	r5, #4
 981 0036 03D1     		bne	.L77
 982              		.loc 1 343 0 is_stmt 0 discriminator 1
 983 0038 4020     		movs	r0, #64
 984 003a FFF7FEFF 		bl	setFIFOAverage
 985              	.LVL109:
 986 003e 14E0     		b	.L75
 987              	.L77:
 344:MAX30102.c    ****   else if (sampleAverage == 8) setFIFOAverage(MAX30102_SAMPLEAVG_8);
 988              		.loc 1 344 0 is_stmt 1
 989 0040 082D     		cmp	r5, #8
 990 0042 03D1     		bne	.L78
 991              		.loc 1 344 0 is_stmt 0 discriminator 1
 992 0044 6020     		movs	r0, #96
 993 0046 FFF7FEFF 		bl	setFIFOAverage
 994              	.LVL110:
 995 004a 0EE0     		b	.L75
 996              	.L78:
 345:MAX30102.c    ****   else if (sampleAverage == 16) setFIFOAverage(MAX30102_SAMPLEAVG_16);
 997              		.loc 1 345 0 is_stmt 1
 998 004c 102D     		cmp	r5, #16
 999 004e 03D1     		bne	.L79
 1000              		.loc 1 345 0 is_stmt 0 discriminator 1
 1001 0050 8020     		movs	r0, #128
 1002 0052 FFF7FEFF 		bl	setFIFOAverage
 1003              	.LVL111:
 1004 0056 08E0     		b	.L75
 1005              	.L79:
 346:MAX30102.c    ****   else if (sampleAverage == 32) setFIFOAverage(MAX30102_SAMPLEAVG_32);
 1006              		.loc 1 346 0 is_stmt 1
 1007 0058 202D     		cmp	r5, #32
 1008 005a 03D1     		bne	.L80
 1009              		.loc 1 346 0 is_stmt 0 discriminator 1
 1010 005c A020     		movs	r0, #160
 1011 005e FFF7FEFF 		bl	setFIFOAverage
 1012              	.LVL112:
 1013 0062 02E0     		b	.L75
 1014              	.L80:
 347:MAX30102.c    ****   else setFIFOAverage(MAX30102_SAMPLEAVG_4);
 1015              		.loc 1 347 0 is_stmt 1
 1016 0064 4020     		movs	r0, #64
 1017 0066 FFF7FEFF 		bl	setFIFOAverage
ARM GAS  C:\Users\nikod\AppData\Local\Temp\ccGwiLMd.s 			page 25


 1018              	.LVL113:
 1019              	.L75:
 348:MAX30102.c    **** 
 349:MAX30102.c    ****   //setFIFOAlmostFull(2); //Set to 30 samples to trigger an 'Almost Full' interrupt
 350:MAX30102.c    ****   enableFIFORollover(); //Allow FIFO to wrap/roll over
 1020              		.loc 1 350 0
 1021 006a FFF7FEFF 		bl	enableFIFORollover
 1022              	.LVL114:
 351:MAX30102.c    ****   //-=-=-=-=-=-=-=-=-=-=-=-=-=-=-=-=-=-=-=-=-=-=-=-=-
 352:MAX30102.c    **** 
 353:MAX30102.c    ****   //Mode Configuration
 354:MAX30102.c    ****   //-=-=-=-=-=-=-=-=-=-=-=-=-=-=-=-=-=-=-=-=-=-=-=-=-
 355:MAX30102.c    ****   if (ledMode == 3) setLEDMode(MAX30102_MODE_MULTILED); //Watch all three LED channels
 1023              		.loc 1 355 0
 1024 006e 032C     		cmp	r4, #3
 1025 0070 03D1     		bne	.L81
 1026              		.loc 1 355 0 is_stmt 0 discriminator 1
 1027 0072 0720     		movs	r0, #7
 1028 0074 FFF7FEFF 		bl	setLEDMode
 1029              	.LVL115:
 1030 0078 08E0     		b	.L82
 1031              	.L81:
 356:MAX30102.c    ****   else if (ledMode == 2) setLEDMode(MAX30102_MODE_REDIRONLY); //Red and IR
 1032              		.loc 1 356 0 is_stmt 1
 1033 007a 022C     		cmp	r4, #2
 1034 007c 03D1     		bne	.L83
 1035              		.loc 1 356 0 is_stmt 0 discriminator 1
 1036 007e 0320     		movs	r0, #3
 1037 0080 FFF7FEFF 		bl	setLEDMode
 1038              	.LVL116:
 1039 0084 02E0     		b	.L82
 1040              	.L83:
 357:MAX30102.c    ****   else setLEDMode(MAX30102_MODE_REDONLY); //Red only
 1041              		.loc 1 357 0 is_stmt 1
 1042 0086 0220     		movs	r0, #2
 1043 0088 FFF7FEFF 		bl	setLEDMode
 1044              	.LVL117:
 1045              	.L82:
 358:MAX30102.c    ****   activeLEDs = ledMode; //Used to control how many bytes to read from FIFO buffer
 1046              		.loc 1 358 0
 1047 008c 4C4B     		ldr	r3, .L106
 1048 008e 1C70     		strb	r4, [r3]
 359:MAX30102.c    ****   //-=-=-=-=-=-=-=-=-=-=-=-=-=-=-=-=-=-=-=-=-=-=-=-=-
 360:MAX30102.c    **** 
 361:MAX30102.c    ****   //Particle Sensing Configuration
 362:MAX30102.c    ****   //-=-=-=-=-=-=-=-=-=-=-=-=-=-=-=-=-=-=-=-=-=-=-=-=-
 363:MAX30102.c    ****   if(adcRange < 4096) setADCRange(MAX30102_ADCRANGE_2048); //7.81pA per LSB
 1049              		.loc 1 363 0
 1050 0090 B9F5805F 		cmp	r9, #4096
 1051 0094 03DA     		bge	.L84
 1052              		.loc 1 363 0 is_stmt 0 discriminator 1
 1053 0096 0020     		movs	r0, #0
 1054 0098 FFF7FEFF 		bl	setADCRange
 1055              	.LVL118:
 1056 009c 17E0     		b	.L85
 1057              	.L84:
 364:MAX30102.c    ****   else if(adcRange < 8192) setADCRange(MAX30102_ADCRANGE_4096); //15.63pA per LSB
ARM GAS  C:\Users\nikod\AppData\Local\Temp\ccGwiLMd.s 			page 26


 1058              		.loc 1 364 0 is_stmt 1
 1059 009e B9F5005F 		cmp	r9, #8192
 1060 00a2 03DA     		bge	.L86
 1061              		.loc 1 364 0 is_stmt 0 discriminator 1
 1062 00a4 2020     		movs	r0, #32
 1063 00a6 FFF7FEFF 		bl	setADCRange
 1064              	.LVL119:
 1065 00aa 10E0     		b	.L85
 1066              	.L86:
 365:MAX30102.c    ****   else if(adcRange < 16384) setADCRange(MAX30102_ADCRANGE_8192); //31.25pA per LSB
 1067              		.loc 1 365 0 is_stmt 1
 1068 00ac B9F5804F 		cmp	r9, #16384
 1069 00b0 03DA     		bge	.L87
 1070              		.loc 1 365 0 is_stmt 0 discriminator 1
 1071 00b2 4020     		movs	r0, #64
 1072 00b4 FFF7FEFF 		bl	setADCRange
 1073              	.LVL120:
 1074 00b8 09E0     		b	.L85
 1075              	.L87:
 366:MAX30102.c    ****   else if(adcRange == 16384) setADCRange(MAX30102_ADCRANGE_16384); //62.5pA per LSB
 1076              		.loc 1 366 0 is_stmt 1
 1077 00ba B9F5804F 		cmp	r9, #16384
 1078 00be 03D1     		bne	.L88
 1079              		.loc 1 366 0 is_stmt 0 discriminator 1
 1080 00c0 6020     		movs	r0, #96
 1081 00c2 FFF7FEFF 		bl	setADCRange
 1082              	.LVL121:
 1083 00c6 02E0     		b	.L85
 1084              	.L88:
 367:MAX30102.c    ****   else setADCRange(MAX30102_ADCRANGE_2048);
 1085              		.loc 1 367 0 is_stmt 1
 1086 00c8 0020     		movs	r0, #0
 1087 00ca FFF7FEFF 		bl	setADCRange
 1088              	.LVL122:
 1089              	.L85:
 368:MAX30102.c    **** 
 369:MAX30102.c    ****   if (sampleRate < 100) setSampleRate(MAX30102_SAMPLERATE_50); //Take 50 samples per second
 1090              		.loc 1 369 0
 1091 00ce 632F     		cmp	r7, #99
 1092 00d0 03DC     		bgt	.L89
 1093              		.loc 1 369 0 is_stmt 0 discriminator 1
 1094 00d2 0020     		movs	r0, #0
 1095 00d4 FFF7FEFF 		bl	setSampleRate
 1096              	.LVL123:
 1097 00d8 32E0     		b	.L90
 1098              	.L89:
 370:MAX30102.c    ****   else if (sampleRate < 200) setSampleRate(MAX30102_SAMPLERATE_100);
 1099              		.loc 1 370 0 is_stmt 1
 1100 00da C72F     		cmp	r7, #199
 1101 00dc 03DC     		bgt	.L91
 1102              		.loc 1 370 0 is_stmt 0 discriminator 1
 1103 00de 0420     		movs	r0, #4
 1104 00e0 FFF7FEFF 		bl	setSampleRate
 1105              	.LVL124:
 1106 00e4 2CE0     		b	.L90
 1107              	.L91:
 371:MAX30102.c    ****   else if (sampleRate < 400) setSampleRate(MAX30102_SAMPLERATE_200);
ARM GAS  C:\Users\nikod\AppData\Local\Temp\ccGwiLMd.s 			page 27


 1108              		.loc 1 371 0 is_stmt 1
 1109 00e6 B7F5C87F 		cmp	r7, #400
 1110 00ea 03DA     		bge	.L92
 1111              		.loc 1 371 0 is_stmt 0 discriminator 1
 1112 00ec 0820     		movs	r0, #8
 1113 00ee FFF7FEFF 		bl	setSampleRate
 1114              	.LVL125:
 1115 00f2 25E0     		b	.L90
 1116              	.L92:
 372:MAX30102.c    ****   else if (sampleRate < 800) setSampleRate(MAX30102_SAMPLERATE_400);
 1117              		.loc 1 372 0 is_stmt 1
 1118 00f4 B7F5487F 		cmp	r7, #800
 1119 00f8 03DA     		bge	.L93
 1120              		.loc 1 372 0 is_stmt 0 discriminator 1
 1121 00fa 0C20     		movs	r0, #12
 1122 00fc FFF7FEFF 		bl	setSampleRate
 1123              	.LVL126:
 1124 0100 1EE0     		b	.L90
 1125              	.L93:
 373:MAX30102.c    ****   else if (sampleRate < 1000) setSampleRate(MAX30102_SAMPLERATE_800);
 1126              		.loc 1 373 0 is_stmt 1
 1127 0102 B7F57A7F 		cmp	r7, #1000
 1128 0106 03DA     		bge	.L94
 1129              		.loc 1 373 0 is_stmt 0 discriminator 1
 1130 0108 1020     		movs	r0, #16
 1131 010a FFF7FEFF 		bl	setSampleRate
 1132              	.LVL127:
 1133 010e 17E0     		b	.L90
 1134              	.L94:
 374:MAX30102.c    ****   else if (sampleRate < 1600) setSampleRate(MAX30102_SAMPLERATE_1000);
 1135              		.loc 1 374 0 is_stmt 1
 1136 0110 B7F5C86F 		cmp	r7, #1600
 1137 0114 03DA     		bge	.L95
 1138              		.loc 1 374 0 is_stmt 0 discriminator 1
 1139 0116 1420     		movs	r0, #20
 1140 0118 FFF7FEFF 		bl	setSampleRate
 1141              	.LVL128:
 1142 011c 10E0     		b	.L90
 1143              	.L95:
 375:MAX30102.c    ****   else if (sampleRate < 3200) setSampleRate(MAX30102_SAMPLERATE_1600);
 1144              		.loc 1 375 0 is_stmt 1
 1145 011e B7F5486F 		cmp	r7, #3200
 1146 0122 03DA     		bge	.L96
 1147              		.loc 1 375 0 is_stmt 0 discriminator 1
 1148 0124 1820     		movs	r0, #24
 1149 0126 FFF7FEFF 		bl	setSampleRate
 1150              	.LVL129:
 1151 012a 09E0     		b	.L90
 1152              	.L96:
 376:MAX30102.c    ****   else if (sampleRate == 3200) setSampleRate(MAX30102_SAMPLERATE_3200);
 1153              		.loc 1 376 0 is_stmt 1
 1154 012c B7F5486F 		cmp	r7, #3200
 1155 0130 03D1     		bne	.L97
 1156              		.loc 1 376 0 is_stmt 0 discriminator 1
 1157 0132 1C20     		movs	r0, #28
 1158 0134 FFF7FEFF 		bl	setSampleRate
 1159              	.LVL130:
ARM GAS  C:\Users\nikod\AppData\Local\Temp\ccGwiLMd.s 			page 28


 1160 0138 02E0     		b	.L90
 1161              	.L97:
 377:MAX30102.c    ****   else setSampleRate(MAX30102_SAMPLERATE_50);
 1162              		.loc 1 377 0 is_stmt 1
 1163 013a 0020     		movs	r0, #0
 1164 013c FFF7FEFF 		bl	setSampleRate
 1165              	.LVL131:
 1166              	.L90:
 378:MAX30102.c    **** 
 379:MAX30102.c    ****   //The longer the pulse width the longer range of detection you'll have
 380:MAX30102.c    ****   //At 69us and 0.4mA it's about 2 inches
 381:MAX30102.c    ****   //At 411us and 0.4mA it's about 6 inches
 382:MAX30102.c    ****   if (pulseWidth < 118) setPulseWidth(MAX30102_PULSEWIDTH_69); //Page 26, Gets us 15 bit resolution
 1167              		.loc 1 382 0
 1168 0140 B8F1750F 		cmp	r8, #117
 1169 0144 03DC     		bgt	.L98
 1170              		.loc 1 382 0 is_stmt 0 discriminator 1
 1171 0146 0020     		movs	r0, #0
 1172 0148 FFF7FEFF 		bl	setPulseWidth
 1173              	.LVL132:
 1174 014c 18E0     		b	.L99
 1175              	.L98:
 383:MAX30102.c    ****   else if (pulseWidth < 215) setPulseWidth(MAX30102_PULSEWIDTH_118); //16 bit resolution
 1176              		.loc 1 383 0 is_stmt 1
 1177 014e B8F1D60F 		cmp	r8, #214
 1178 0152 03DC     		bgt	.L100
 1179              		.loc 1 383 0 is_stmt 0 discriminator 1
 1180 0154 0120     		movs	r0, #1
 1181 0156 FFF7FEFF 		bl	setPulseWidth
 1182              	.LVL133:
 1183 015a 11E0     		b	.L99
 1184              	.L100:
 384:MAX30102.c    ****   else if (pulseWidth < 411) setPulseWidth(MAX30102_PULSEWIDTH_215); //17 bit resolution
 1185              		.loc 1 384 0 is_stmt 1
 1186 015c B8F5CD7F 		cmp	r8, #410
 1187 0160 03DC     		bgt	.L101
 1188              		.loc 1 384 0 is_stmt 0 discriminator 1
 1189 0162 0220     		movs	r0, #2
 1190 0164 FFF7FEFF 		bl	setPulseWidth
 1191              	.LVL134:
 1192 0168 0AE0     		b	.L99
 1193              	.L101:
 385:MAX30102.c    ****   else if (pulseWidth == 411) setPulseWidth(MAX30102_PULSEWIDTH_411); //18 bit resolution
 1194              		.loc 1 385 0 is_stmt 1
 1195 016a 40F29B13 		movw	r3, #411
 1196 016e 9845     		cmp	r8, r3
 1197 0170 03D1     		bne	.L102
 1198              		.loc 1 385 0 is_stmt 0 discriminator 1
 1199 0172 0320     		movs	r0, #3
 1200 0174 FFF7FEFF 		bl	setPulseWidth
 1201              	.LVL135:
 1202 0178 02E0     		b	.L99
 1203              	.L102:
 386:MAX30102.c    ****   else setPulseWidth(MAX30102_PULSEWIDTH_69);
 1204              		.loc 1 386 0 is_stmt 1
 1205 017a 0020     		movs	r0, #0
 1206 017c FFF7FEFF 		bl	setPulseWidth
ARM GAS  C:\Users\nikod\AppData\Local\Temp\ccGwiLMd.s 			page 29


 1207              	.LVL136:
 1208              	.L99:
 387:MAX30102.c    ****   //-=-=-=-=-=-=-=-=-=-=-=-=-=-=-=-=-=-=-=-=-=-=-=-=-
 388:MAX30102.c    **** 
 389:MAX30102.c    ****   //LED Pulse Amplitude Configuration
 390:MAX30102.c    ****   //-=-=-=-=-=-=-=-=-=-=-=-=-=-=-=-=-=-=-=-=-=-=-=-=-
 391:MAX30102.c    ****   //Default is 0x1F which gets us 6.4mA
 392:MAX30102.c    ****   //powerLevel = 0x02, 0.4mA - Presence detection of ~4 inch
 393:MAX30102.c    ****   //powerLevel = 0x1F, 6.4mA - Presence detection of ~8 inch
 394:MAX30102.c    ****   //powerLevel = 0x7F, 25.4mA - Presence detection of ~8 inch
 395:MAX30102.c    ****   //powerLevel = 0xFF, 50.0mA - Presence detection of ~12 inch
 396:MAX30102.c    **** 
 397:MAX30102.c    ****   setPulseAmplitudeRed(powerLevel);
 1209              		.loc 1 397 0
 1210 0180 3046     		mov	r0, r6
 1211 0182 FFF7FEFF 		bl	setPulseAmplitudeRed
 1212              	.LVL137:
 398:MAX30102.c    ****   setPulseAmplitudeIR(powerLevel);
 1213              		.loc 1 398 0
 1214 0186 3046     		mov	r0, r6
 1215 0188 FFF7FEFF 		bl	setPulseAmplitudeIR
 1216              	.LVL138:
 399:MAX30102.c    ****   setPulseAmplitudeGreen(powerLevel);
 1217              		.loc 1 399 0
 1218 018c 3046     		mov	r0, r6
 1219 018e FFF7FEFF 		bl	setPulseAmplitudeGreen
 1220              	.LVL139:
 400:MAX30102.c    ****   setPulseAmplitudeProximity(powerLevel);
 1221              		.loc 1 400 0
 1222 0192 3046     		mov	r0, r6
 1223 0194 FFF7FEFF 		bl	setPulseAmplitudeProximity
 1224              	.LVL140:
 401:MAX30102.c    ****   //-=-=-=-=-=-=-=-=-=-=-=-=-=-=-=-=-=-=-=-=-=-=-=-=-
 402:MAX30102.c    **** 
 403:MAX30102.c    ****   //Multi-LED Mode Configuration, Enable the reading of the three LEDs
 404:MAX30102.c    ****   //-=-=-=-=-=-=-=-=-=-=-=-=-=-=-=-=-=-=-=-=-=-=-=-=-
 405:MAX30102.c    ****   enableSlot(1, SLOT_RED_LED);
 1225              		.loc 1 405 0
 1226 0198 0121     		movs	r1, #1
 1227 019a 0846     		mov	r0, r1
 1228 019c FFF7FEFF 		bl	enableSlot
 1229              	.LVL141:
 406:MAX30102.c    ****   if (ledMode > 1) enableSlot(2, SLOT_IR_LED);
 1230              		.loc 1 406 0
 1231 01a0 012C     		cmp	r4, #1
 1232 01a2 03D9     		bls	.L103
 1233              		.loc 1 406 0 is_stmt 0 discriminator 1
 1234 01a4 0221     		movs	r1, #2
 1235 01a6 0846     		mov	r0, r1
 1236 01a8 FFF7FEFF 		bl	enableSlot
 1237              	.LVL142:
 1238              	.L103:
 407:MAX30102.c    ****   if (ledMode > 2) enableSlot(3, SLOT_GREEN_LED);
 1239              		.loc 1 407 0 is_stmt 1
 1240 01ac 022C     		cmp	r4, #2
 1241 01ae 03D9     		bls	.L104
 1242              		.loc 1 407 0 is_stmt 0 discriminator 1
ARM GAS  C:\Users\nikod\AppData\Local\Temp\ccGwiLMd.s 			page 30


 1243 01b0 0321     		movs	r1, #3
 1244 01b2 0846     		mov	r0, r1
 1245 01b4 FFF7FEFF 		bl	enableSlot
 1246              	.LVL143:
 1247              	.L104:
 408:MAX30102.c    ****   //enableSlot(1, SLOT_RED_PILOT);
 409:MAX30102.c    ****   //enableSlot(2, SLOT_IR_PILOT);
 410:MAX30102.c    ****   //enableSlot(3, SLOT_GREEN_PILOT);
 411:MAX30102.c    ****   //-=-=-=-=-=-=-=-=-=-=-=-=-=-=-=-=-=-=-=-=-=-=-=-=-
 412:MAX30102.c    **** 
 413:MAX30102.c    ****   clearFIFO(); //Reset the FIFO before we begin checking the sensor
 1248              		.loc 1 413 0 is_stmt 1
 1249 01b8 FFF7FEFF 		bl	clearFIFO
 1250              	.LVL144:
 1251 01bc BDE8F883 		pop	{r3, r4, r5, r6, r7, r8, r9, pc}
 1252              	.LVL145:
 1253              	.L107:
 1254              		.align	2
 1255              	.L106:
 1256 01c0 00000000 		.word	activeLEDs
 1257              		.cfi_endproc
 1258              	.LFE89:
 1259              		.size	Max_Init, .-Max_Init
 1260              		.section	.text.Max_getIR,"ax",%progbits
 1261              		.align	2
 1262              		.global	Max_getIR
 1263              		.thumb
 1264              		.thumb_func
 1265              		.type	Max_getIR, %function
 1266              	Max_getIR:
 1267              	.LFB90:
 414:MAX30102.c    **** }
 415:MAX30102.c    **** 
 416:MAX30102.c    **** 
 417:MAX30102.c    **** 
 418:MAX30102.c    **** 
 419:MAX30102.c    **** 
 420:MAX30102.c    **** unsigned long Max_getIR(void)
 421:MAX30102.c    **** {
 1268              		.loc 1 421 0
 1269              		.cfi_startproc
 1270              		@ args = 0, pretend = 0, frame = 8
 1271              		@ frame_needed = 0, uses_anonymous_args = 0
 1272 0000 10B5     		push	{r4, lr}
 1273              		.cfi_def_cfa_offset 8
 1274              		.cfi_offset 4, -8
 1275              		.cfi_offset 14, -4
 1276 0002 82B0     		sub	sp, sp, #8
 1277              		.cfi_def_cfa_offset 16
 422:MAX30102.c    ****   unsigned char readPointer = getReadPointer();
 1278              		.loc 1 422 0
 1279 0004 FFF7FEFF 		bl	getReadPointer
 1280              	.LVL146:
 1281 0008 0446     		mov	r4, r0
 1282              	.LVL147:
 423:MAX30102.c    ****   unsigned char writePointer = getWritePointer();
 1283              		.loc 1 423 0
ARM GAS  C:\Users\nikod\AppData\Local\Temp\ccGwiLMd.s 			page 31


 1284 000a FFF7FEFF 		bl	getWritePointer
 1285              	.LVL148:
 424:MAX30102.c    ****   //Do we have new data?
 425:MAX30102.c    ****   if (readPointer != writePointer)
 1286              		.loc 1 425 0
 1287 000e 8442     		cmp	r4, r0
 1288 0010 30D0     		beq	.L111
 1289              	.LBB3:
 426:MAX30102.c    ****   {
 427:MAX30102.c    ****     unsigned char tempIR[sizeof(uint32_t)]; //Array of 4 bytes that we will convert into long
 428:MAX30102.c    ****     unsigned long tempLongIR=0;
 1290              		.loc 1 428 0
 1291 0012 0023     		movs	r3, #0
 1292 0014 0193     		str	r3, [sp, #4]
 429:MAX30102.c    ****     tempIR[3] = 0;
 1293              		.loc 1 429 0
 1294 0016 8DF80330 		strb	r3, [sp, #3]
 430:MAX30102.c    ****     if(Max_Beginwrite(MAX30102_ADDRESS)){
 1295              		.loc 1 430 0
 1296 001a 5720     		movs	r0, #87
 1297              	.LVL149:
 1298 001c FFF7FEFF 		bl	Max_Beginwrite
 1299              	.LVL150:
 1300 0020 30B3     		cbz	r0, .L110
 431:MAX30102.c    ****     I2C_MasterWriteByte(MAX30102_FIFODATA);//Pone direccion de la fifo 
 1301              		.loc 1 431 0
 1302 0022 0720     		movs	r0, #7
 1303 0024 FFF7FEFF 		bl	I2C_MasterWriteByte
 1304              	.LVL151:
 432:MAX30102.c    ****     I2C_MasterSendRestart(MAX30102_ADDRESS, I2C_READ_XFER_MODE); // Re transmite para obtener datos
 1305              		.loc 1 432 0
 1306 0028 0121     		movs	r1, #1
 1307 002a 5720     		movs	r0, #87
 1308 002c FFF7FEFF 		bl	I2C_MasterSendRestart
 1309              	.LVL152:
 433:MAX30102.c    ****     I2C_MasterReadByte(I2C_ACK_DATA);
 1310              		.loc 1 433 0
 1311 0030 0120     		movs	r0, #1
 1312 0032 FFF7FEFF 		bl	I2C_MasterReadByte
 1313              	.LVL153:
 434:MAX30102.c    ****     I2C_MasterReadByte(I2C_ACK_DATA);
 1314              		.loc 1 434 0
 1315 0036 0120     		movs	r0, #1
 1316 0038 FFF7FEFF 		bl	I2C_MasterReadByte
 1317              	.LVL154:
 435:MAX30102.c    ****     I2C_MasterReadByte(I2C_ACK_DATA);
 1318              		.loc 1 435 0
 1319 003c 0120     		movs	r0, #1
 1320 003e FFF7FEFF 		bl	I2C_MasterReadByte
 1321              	.LVL155:
 436:MAX30102.c    ****     tempIR[2] = I2C_MasterReadByte(I2C_ACK_DATA);
 1322              		.loc 1 436 0
 1323 0042 0120     		movs	r0, #1
 1324 0044 FFF7FEFF 		bl	I2C_MasterReadByte
 1325              	.LVL156:
 1326 0048 8DF80200 		strb	r0, [sp, #2]
 437:MAX30102.c    ****     tempIR[1] = I2C_MasterReadByte(I2C_ACK_DATA);
ARM GAS  C:\Users\nikod\AppData\Local\Temp\ccGwiLMd.s 			page 32


 1327              		.loc 1 437 0
 1328 004c 0120     		movs	r0, #1
 1329 004e FFF7FEFF 		bl	I2C_MasterReadByte
 1330              	.LVL157:
 1331 0052 8DF80100 		strb	r0, [sp, #1]
 438:MAX30102.c    ****     tempIR[0] = I2C_MasterReadByte(I2C_NAK_DATA);
 1332              		.loc 1 438 0
 1333 0056 0020     		movs	r0, #0
 1334 0058 FFF7FEFF 		bl	I2C_MasterReadByte
 1335              	.LVL158:
 1336 005c 8DF80000 		strb	r0, [sp]
 439:MAX30102.c    ****     I2C_MasterSendStop();
 1337              		.loc 1 439 0
 1338 0060 FFF7FEFF 		bl	I2C_MasterSendStop
 1339              	.LVL159:
 440:MAX30102.c    ****     memcpy(&tempLongIR, tempIR, sizeof(tempLongIR));     //Convert array to long
 441:MAX30102.c    ****     tempLongIR &= 0x3FFFF;    
 1340              		.loc 1 441 0
 1341 0064 009B     		ldr	r3, [sp]
 1342 0066 C3F31103 		ubfx	r3, r3, #0, #18
 1343 006a 0193     		str	r3, [sp, #4]
 442:MAX30102.c    ****     clearFIFO();
 1344              		.loc 1 442 0
 1345 006c FFF7FEFF 		bl	clearFIFO
 1346              	.LVL160:
 1347              	.L110:
 443:MAX30102.c    ****     }     
 444:MAX30102.c    ****     return tempLongIR;     
 1348              		.loc 1 444 0
 1349 0070 0198     		ldr	r0, [sp, #4]
 1350 0072 00E0     		b	.L109
 1351              	.LVL161:
 1352              	.L111:
 1353              	.LBE3:
 445:MAX30102.c    ****     }else{
 446:MAX30102.c    ****         return 0x0000;
 1354              		.loc 1 446 0
 1355 0074 0020     		movs	r0, #0
 1356              	.LVL162:
 1357              	.L109:
 447:MAX30102.c    ****     }        
 448:MAX30102.c    ****       
 449:MAX30102.c    **** }
 1358              		.loc 1 449 0 discriminator 1
 1359 0076 02B0     		add	sp, sp, #8
 1360              		.cfi_def_cfa_offset 8
 1361              		@ sp needed
 1362 0078 10BD     		pop	{r4, pc}
 1363              		.cfi_endproc
 1364              	.LFE90:
 1365              		.size	Max_getIR, .-Max_getIR
 1366              		.comm	activeLEDs,1,1
 1367 007a 00BF     		.section	.rodata.str1.4,"aMS",%progbits,1
 1368              		.align	2
 1369              	.LC0:
 1370 0000 5469656D 		.ascii	"Tiempo excedido\000"
 1370      706F2065 
ARM GAS  C:\Users\nikod\AppData\Local\Temp\ccGwiLMd.s 			page 33


 1370      78636564 
 1370      69646F00 
 1371              	.LC1:
 1372 0010 5469656D 		.ascii	"Tiempo excedido\015\012\000"
 1372      706F2065 
 1372      78636564 
 1372      69646F0D 
 1372      0A00
 1373              		.text
 1374              	.Letext0:
 1375              		.file 2 "c:\\program files (x86)\\cypress\\psoc creator\\4.2\\psoc creator\\import\\gnu\\arm\\5.4.
 1376              		.file 3 "c:\\program files (x86)\\cypress\\psoc creator\\4.2\\psoc creator\\import\\gnu\\arm\\5.4.
 1377              		.file 4 "Generated_Source\\PSoC5/core_cm3.h"
 1378              		.file 5 "MAX30102.h"
 1379              		.file 6 "Generated_Source\\PSoC5/UART.h"
 1380              		.file 7 "Generated_Source\\PSoC5/I2C.h"
 1381              		.file 8 "Generated_Source\\PSoC5/CyLib.h"