ARM GAS  C:\Users\jdrd3\AppData\Local\Temp\ccfOvRA1.s 			page 1


   1              		.syntax unified
   2              		.cpu cortex-m3
   3              		.fpu softvfp
   4              		.eabi_attribute 20, 1
   5              		.eabi_attribute 21, 1
   6              		.eabi_attribute 23, 3
   7              		.eabi_attribute 24, 1
   8              		.eabi_attribute 25, 1
   9              		.eabi_attribute 26, 1
  10              		.eabi_attribute 30, 1
  11              		.eabi_attribute 34, 1
  12              		.eabi_attribute 18, 4
  13              		.thumb
  14              		.syntax unified
  15              		.file	"LCD_BarGraph.c"
  16              		.text
  17              	.Ltext0:
  18              		.cfi_sections	.debug_frame
  19              		.section	.text.LCD_LoadCustomFonts,"ax",%progbits
  20              		.align	2
  21              		.global	LCD_LoadCustomFonts
  22              		.thumb
  23              		.thumb_func
  24              		.type	LCD_LoadCustomFonts, %function
  25              	LCD_LoadCustomFonts:
  26              	.LFB0:
  27              		.file 1 "Generated_Source\\PSoC5\\LCD_BarGraph.c"
   1:Generated_Source\PSoC5/LCD_BarGraph.c **** /*******************************************************************************
   2:Generated_Source\PSoC5/LCD_BarGraph.c **** * File Name: LCD_BarGraph.c
   3:Generated_Source\PSoC5/LCD_BarGraph.c **** * Version 2.20
   4:Generated_Source\PSoC5/LCD_BarGraph.c **** *
   5:Generated_Source\PSoC5/LCD_BarGraph.c **** * Description:
   6:Generated_Source\PSoC5/LCD_BarGraph.c **** *  This file provides the custom character data and API for creating and using
   7:Generated_Source\PSoC5/LCD_BarGraph.c **** *  bar graphs with the Character LCD component.
   8:Generated_Source\PSoC5/LCD_BarGraph.c **** *
   9:Generated_Source\PSoC5/LCD_BarGraph.c **** * Note:
  10:Generated_Source\PSoC5/LCD_BarGraph.c **** *
  11:Generated_Source\PSoC5/LCD_BarGraph.c **** ********************************************************************************
  12:Generated_Source\PSoC5/LCD_BarGraph.c **** * Copyright 2008-2014, Cypress Semiconductor Corporation.  All rights reserved.
  13:Generated_Source\PSoC5/LCD_BarGraph.c **** * You may use this file only in accordance with the license, terms, conditions,
  14:Generated_Source\PSoC5/LCD_BarGraph.c **** * disclaimers, and limitations in the end user license agreement accompanying
  15:Generated_Source\PSoC5/LCD_BarGraph.c **** * the software package with which this file was provided.
  16:Generated_Source\PSoC5/LCD_BarGraph.c **** *******************************************************************************/
  17:Generated_Source\PSoC5/LCD_BarGraph.c **** 
  18:Generated_Source\PSoC5/LCD_BarGraph.c **** #include "LCD.h"
  19:Generated_Source\PSoC5/LCD_BarGraph.c **** 
  20:Generated_Source\PSoC5/LCD_BarGraph.c **** 
  21:Generated_Source\PSoC5/LCD_BarGraph.c **** uint8 const CYCODE LCD_customFonts[] = \
  22:Generated_Source\PSoC5/LCD_BarGraph.c **** {
  23:Generated_Source\PSoC5/LCD_BarGraph.c ****     /* Character LCD_CUSTOM_0   */
  24:Generated_Source\PSoC5/LCD_BarGraph.c ****     0x00u,    0x00u,    0x00u,    0x00u,    0x00u,    0x00u,    0x00u,    0x1Fu, \
  25:Generated_Source\PSoC5/LCD_BarGraph.c ****     /* Character LCD_CUSTOM_1   */
  26:Generated_Source\PSoC5/LCD_BarGraph.c ****     0x00u,    0x00u,    0x00u,    0x00u,    0x00u,    0x00u,    0x1Fu,    0x1Fu, \
  27:Generated_Source\PSoC5/LCD_BarGraph.c ****     /* Character LCD_CUSTOM_2   */
  28:Generated_Source\PSoC5/LCD_BarGraph.c ****     0x00u,    0x00u,    0x00u,    0x00u,    0x00u,    0x1Fu,    0x1Fu,    0x1Fu, \
  29:Generated_Source\PSoC5/LCD_BarGraph.c ****     /* Character LCD_CUSTOM_3   */
  30:Generated_Source\PSoC5/LCD_BarGraph.c ****     0x00u,    0x00u,    0x00u,    0x00u,    0x1Fu,    0x1Fu,    0x1Fu,    0x1Fu, \
ARM GAS  C:\Users\jdrd3\AppData\Local\Temp\ccfOvRA1.s 			page 2


  31:Generated_Source\PSoC5/LCD_BarGraph.c ****     /* Character LCD_CUSTOM_4   */
  32:Generated_Source\PSoC5/LCD_BarGraph.c ****     0x00u,    0x00u,    0x00u,    0x1Fu,    0x1Fu,    0x1Fu,    0x1Fu,    0x1Fu, \
  33:Generated_Source\PSoC5/LCD_BarGraph.c ****     /* Character LCD_CUSTOM_5   */
  34:Generated_Source\PSoC5/LCD_BarGraph.c ****     0x00u,    0x00u,    0x1Fu,    0x1Fu,    0x1Fu,    0x1Fu,    0x1Fu,    0x1Fu, \
  35:Generated_Source\PSoC5/LCD_BarGraph.c ****     /* Character LCD_CUSTOM_6   */
  36:Generated_Source\PSoC5/LCD_BarGraph.c ****     0x00u,    0x1Fu,    0x1Fu,    0x1Fu,    0x1Fu,    0x1Fu,    0x1Fu,    0x1Fu, \
  37:Generated_Source\PSoC5/LCD_BarGraph.c ****     /* Character LCD_CUSTOM_7   */
  38:Generated_Source\PSoC5/LCD_BarGraph.c ****     0x1Fu,    0x1Fu,    0x1Fu,    0x1Fu,    0x1Fu,    0x1Fu,    0x1Fu,    0x1Fu \
  39:Generated_Source\PSoC5/LCD_BarGraph.c **** };
  40:Generated_Source\PSoC5/LCD_BarGraph.c **** 
  41:Generated_Source\PSoC5/LCD_BarGraph.c **** 
  42:Generated_Source\PSoC5/LCD_BarGraph.c **** /*******************************************************************************
  43:Generated_Source\PSoC5/LCD_BarGraph.c **** * Function Name: LCD_LoadCustomFonts
  44:Generated_Source\PSoC5/LCD_BarGraph.c **** ********************************************************************************
  45:Generated_Source\PSoC5/LCD_BarGraph.c **** *
  46:Generated_Source\PSoC5/LCD_BarGraph.c **** * Summary:
  47:Generated_Source\PSoC5/LCD_BarGraph.c **** *  Loads 8 custom font characters into the LCD Module for use.  Cannot use
  48:Generated_Source\PSoC5/LCD_BarGraph.c **** *  characters from two different font sets at once, but font sets can be
  49:Generated_Source\PSoC5/LCD_BarGraph.c **** *  switched out during runtime.
  50:Generated_Source\PSoC5/LCD_BarGraph.c **** *
  51:Generated_Source\PSoC5/LCD_BarGraph.c **** * Parameters:
  52:Generated_Source\PSoC5/LCD_BarGraph.c **** *  customData:  pointer to a constant array of 64 bytes representing 8 custom
  53:Generated_Source\PSoC5/LCD_BarGraph.c **** *               font characters.
  54:Generated_Source\PSoC5/LCD_BarGraph.c **** * Return:
  55:Generated_Source\PSoC5/LCD_BarGraph.c **** *  None.
  56:Generated_Source\PSoC5/LCD_BarGraph.c **** *
  57:Generated_Source\PSoC5/LCD_BarGraph.c **** * Theory:
  58:Generated_Source\PSoC5/LCD_BarGraph.c **** *  Prior to using this function user need to import the pointer to custom
  59:Generated_Source\PSoC5/LCD_BarGraph.c **** *  font array to your project by writting the following in the source code file
  60:Generated_Source\PSoC5/LCD_BarGraph.c **** *  where custom font will be used:
  61:Generated_Source\PSoC5/LCD_BarGraph.c **** *       extern uint8 const CYCODE LCD_Char_customFonts[];
  62:Generated_Source\PSoC5/LCD_BarGraph.c **** *  This function is not automatically called by the Start() routine and must be
  63:Generated_Source\PSoC5/LCD_BarGraph.c **** *  called manually by the user.
  64:Generated_Source\PSoC5/LCD_BarGraph.c **** *******************************************************************************/
  65:Generated_Source\PSoC5/LCD_BarGraph.c **** void LCD_LoadCustomFonts(uint8 const customData[]) 
  66:Generated_Source\PSoC5/LCD_BarGraph.c **** {
  28              		.loc 1 66 0
  29              		.cfi_startproc
  30              		@ args = 0, pretend = 0, frame = 0
  31              		@ frame_needed = 0, uses_anonymous_args = 0
  32              	.LVL0:
  33 0000 38B5     		push	{r3, r4, r5, lr}
  34              		.cfi_def_cfa_offset 16
  35              		.cfi_offset 3, -16
  36              		.cfi_offset 4, -12
  37              		.cfi_offset 5, -8
  38              		.cfi_offset 14, -4
  39 0002 0546     		mov	r5, r0
  67:Generated_Source\PSoC5/LCD_BarGraph.c ****     uint8 indexU8;
  68:Generated_Source\PSoC5/LCD_BarGraph.c **** 
  69:Generated_Source\PSoC5/LCD_BarGraph.c ****     LCD_IsReady();
  40              		.loc 1 69 0
  41 0004 FFF7FEFF 		bl	LCD_IsReady
  42              	.LVL1:
  70:Generated_Source\PSoC5/LCD_BarGraph.c ****     /* Set starting address in the LCD Module */
  71:Generated_Source\PSoC5/LCD_BarGraph.c ****     /* Optionally: Read the current address to restore at a later time */
  72:Generated_Source\PSoC5/LCD_BarGraph.c ****     LCD_WriteControl(LCD_CGRAM_0);
ARM GAS  C:\Users\jdrd3\AppData\Local\Temp\ccfOvRA1.s 			page 3


  43              		.loc 1 72 0
  44 0008 4020     		movs	r0, #64
  45 000a FFF7FEFF 		bl	LCD_WriteControl
  46              	.LVL2:
  73:Generated_Source\PSoC5/LCD_BarGraph.c **** 
  74:Generated_Source\PSoC5/LCD_BarGraph.c ****     /* Load in the 64 bytes of CustomChar Data */
  75:Generated_Source\PSoC5/LCD_BarGraph.c ****     for(indexU8 = 0u; indexU8 < LCD_CUSTOM_CHAR_SET_LEN; indexU8++)
  47              		.loc 1 75 0
  48 000e 0024     		movs	r4, #0
  49 0010 04E0     		b	.L2
  50              	.LVL3:
  51              	.L3:
  76:Generated_Source\PSoC5/LCD_BarGraph.c ****     {
  77:Generated_Source\PSoC5/LCD_BarGraph.c ****         /* Delay between each write */
  78:Generated_Source\PSoC5/LCD_BarGraph.c ****         LCD_WriteData(customData[indexU8]);
  52              		.loc 1 78 0 discriminator 3
  53 0012 285D     		ldrb	r0, [r5, r4]	@ zero_extendqisi2
  54 0014 FFF7FEFF 		bl	LCD_WriteData
  55              	.LVL4:
  75:Generated_Source\PSoC5/LCD_BarGraph.c ****     {
  56              		.loc 1 75 0 discriminator 3
  57 0018 0134     		adds	r4, r4, #1
  58              	.LVL5:
  59 001a E4B2     		uxtb	r4, r4
  60              	.LVL6:
  61              	.L2:
  75:Generated_Source\PSoC5/LCD_BarGraph.c ****     {
  62              		.loc 1 75 0 is_stmt 0 discriminator 1
  63 001c 3F2C     		cmp	r4, #63
  64 001e F8D9     		bls	.L3
  79:Generated_Source\PSoC5/LCD_BarGraph.c ****     }
  80:Generated_Source\PSoC5/LCD_BarGraph.c **** 
  81:Generated_Source\PSoC5/LCD_BarGraph.c ****     LCD_IsReady();
  65              		.loc 1 81 0 is_stmt 1
  66 0020 FFF7FEFF 		bl	LCD_IsReady
  67              	.LVL7:
  82:Generated_Source\PSoC5/LCD_BarGraph.c ****     LCD_WriteControl(LCD_DDRAM_0);
  68              		.loc 1 82 0
  69 0024 8020     		movs	r0, #128
  70 0026 FFF7FEFF 		bl	LCD_WriteControl
  71              	.LVL8:
  72 002a 38BD     		pop	{r3, r4, r5, pc}
  73              		.cfi_endproc
  74              	.LFE0:
  75              		.size	LCD_LoadCustomFonts, .-LCD_LoadCustomFonts
  76              		.section	.text.LCD_DrawVerticalBG,"ax",%progbits
  77              		.align	2
  78              		.global	LCD_DrawVerticalBG
  79              		.thumb
  80              		.thumb_func
  81              		.type	LCD_DrawVerticalBG, %function
  82              	LCD_DrawVerticalBG:
  83              	.LFB1:
  83:Generated_Source\PSoC5/LCD_BarGraph.c **** }
  84:Generated_Source\PSoC5/LCD_BarGraph.c **** 
  85:Generated_Source\PSoC5/LCD_BarGraph.c **** 
  86:Generated_Source\PSoC5/LCD_BarGraph.c **** #if (LCD_CUSTOM_CHAR_SET == LCD_HORIZONTAL_BG)
ARM GAS  C:\Users\jdrd3\AppData\Local\Temp\ccfOvRA1.s 			page 4


  87:Generated_Source\PSoC5/LCD_BarGraph.c **** 
  88:Generated_Source\PSoC5/LCD_BarGraph.c ****     /*******************************************************************************
  89:Generated_Source\PSoC5/LCD_BarGraph.c ****     * Function Name: LCD_DrawHorizontalBG
  90:Generated_Source\PSoC5/LCD_BarGraph.c ****     ********************************************************************************
  91:Generated_Source\PSoC5/LCD_BarGraph.c ****     *
  92:Generated_Source\PSoC5/LCD_BarGraph.c ****     * Summary:
  93:Generated_Source\PSoC5/LCD_BarGraph.c ****     *  Draws the horizontal bargraph.
  94:Generated_Source\PSoC5/LCD_BarGraph.c ****     *
  95:Generated_Source\PSoC5/LCD_BarGraph.c ****     * Parameters:
  96:Generated_Source\PSoC5/LCD_BarGraph.c ****     *  row:            The row in which the bar graph starts.
  97:Generated_Source\PSoC5/LCD_BarGraph.c ****     *  column:         The column in which the bar graph starts.
  98:Generated_Source\PSoC5/LCD_BarGraph.c ****     *  maxCharacters:  The max length of the graph in whole characters.
  99:Generated_Source\PSoC5/LCD_BarGraph.c ****     *  value:          The current length or height of the graph in pixels.
 100:Generated_Source\PSoC5/LCD_BarGraph.c ****     *
 101:Generated_Source\PSoC5/LCD_BarGraph.c ****     * Return:
 102:Generated_Source\PSoC5/LCD_BarGraph.c ****     *  void.
 103:Generated_Source\PSoC5/LCD_BarGraph.c ****     *
 104:Generated_Source\PSoC5/LCD_BarGraph.c ****     *******************************************************************************/
 105:Generated_Source\PSoC5/LCD_BarGraph.c ****     void LCD_DrawHorizontalBG(uint8 row, uint8 column, uint8 maxCharacters, uint8 value) \
 106:Generated_Source\PSoC5/LCD_BarGraph.c ****                                                             
 107:Generated_Source\PSoC5/LCD_BarGraph.c ****     {
 108:Generated_Source\PSoC5/LCD_BarGraph.c ****         /* 8-bit Counter */
 109:Generated_Source\PSoC5/LCD_BarGraph.c ****         uint8 count8;
 110:Generated_Source\PSoC5/LCD_BarGraph.c ****         uint8 fullChars;
 111:Generated_Source\PSoC5/LCD_BarGraph.c ****         uint8 remainingPixels;
 112:Generated_Source\PSoC5/LCD_BarGraph.c **** 
 113:Generated_Source\PSoC5/LCD_BarGraph.c ****         /* Number of full characters to draw */
 114:Generated_Source\PSoC5/LCD_BarGraph.c ****         fullChars = value / LCD_CHARACTER_WIDTH;
 115:Generated_Source\PSoC5/LCD_BarGraph.c **** 
 116:Generated_Source\PSoC5/LCD_BarGraph.c ****         /* Number of remaining pixels to draw */
 117:Generated_Source\PSoC5/LCD_BarGraph.c ****         remainingPixels = value % LCD_CHARACTER_WIDTH;
 118:Generated_Source\PSoC5/LCD_BarGraph.c **** 
 119:Generated_Source\PSoC5/LCD_BarGraph.c ****         /* Ensure that the maximum character limit is followed. */
 120:Generated_Source\PSoC5/LCD_BarGraph.c ****         if(fullChars >= maxCharacters)
 121:Generated_Source\PSoC5/LCD_BarGraph.c ****         {
 122:Generated_Source\PSoC5/LCD_BarGraph.c ****             fullChars = maxCharacters;
 123:Generated_Source\PSoC5/LCD_BarGraph.c ****         }
 124:Generated_Source\PSoC5/LCD_BarGraph.c **** 
 125:Generated_Source\PSoC5/LCD_BarGraph.c ****         /* Put Cursor at start position */
 126:Generated_Source\PSoC5/LCD_BarGraph.c ****         LCD_Position(row, column);
 127:Generated_Source\PSoC5/LCD_BarGraph.c **** 
 128:Generated_Source\PSoC5/LCD_BarGraph.c ****         /* Write full characters */
 129:Generated_Source\PSoC5/LCD_BarGraph.c ****         for(count8 = 0u; count8 < fullChars; count8++)
 130:Generated_Source\PSoC5/LCD_BarGraph.c ****         {
 131:Generated_Source\PSoC5/LCD_BarGraph.c ****             LCD_WriteData(LCD_CUSTOM_5);
 132:Generated_Source\PSoC5/LCD_BarGraph.c ****         }
 133:Generated_Source\PSoC5/LCD_BarGraph.c **** 
 134:Generated_Source\PSoC5/LCD_BarGraph.c ****         if(fullChars < maxCharacters)
 135:Generated_Source\PSoC5/LCD_BarGraph.c ****         {
 136:Generated_Source\PSoC5/LCD_BarGraph.c ****             /* Write remaining pixels */
 137:Generated_Source\PSoC5/LCD_BarGraph.c ****             LCD_WriteData(remainingPixels);
 138:Generated_Source\PSoC5/LCD_BarGraph.c **** 
 139:Generated_Source\PSoC5/LCD_BarGraph.c ****             if(fullChars < (maxCharacters - 1u))
 140:Generated_Source\PSoC5/LCD_BarGraph.c ****             {
 141:Generated_Source\PSoC5/LCD_BarGraph.c ****                 /* Fill with whitespace to end of bar graph */
 142:Generated_Source\PSoC5/LCD_BarGraph.c ****                 for(count8 = 0u; count8 < (maxCharacters - fullChars - 1u); count8++)
 143:Generated_Source\PSoC5/LCD_BarGraph.c ****                 {
ARM GAS  C:\Users\jdrd3\AppData\Local\Temp\ccfOvRA1.s 			page 5


 144:Generated_Source\PSoC5/LCD_BarGraph.c ****                     LCD_WriteData(LCD_CUSTOM_0);
 145:Generated_Source\PSoC5/LCD_BarGraph.c ****                 }
 146:Generated_Source\PSoC5/LCD_BarGraph.c ****             }
 147:Generated_Source\PSoC5/LCD_BarGraph.c ****         }
 148:Generated_Source\PSoC5/LCD_BarGraph.c ****     }
 149:Generated_Source\PSoC5/LCD_BarGraph.c **** 
 150:Generated_Source\PSoC5/LCD_BarGraph.c **** #endif /* LCD_CUSTOM_CHAR_SET == LCD_HORIZONTAL_BG */
 151:Generated_Source\PSoC5/LCD_BarGraph.c **** 
 152:Generated_Source\PSoC5/LCD_BarGraph.c **** 
 153:Generated_Source\PSoC5/LCD_BarGraph.c **** #if (LCD_CUSTOM_CHAR_SET == LCD_VERTICAL_BG)
 154:Generated_Source\PSoC5/LCD_BarGraph.c **** 
 155:Generated_Source\PSoC5/LCD_BarGraph.c ****     /*******************************************************************************
 156:Generated_Source\PSoC5/LCD_BarGraph.c ****     *  Function Name: LCD_DrawVerticalBG
 157:Generated_Source\PSoC5/LCD_BarGraph.c ****     ********************************************************************************
 158:Generated_Source\PSoC5/LCD_BarGraph.c ****     *
 159:Generated_Source\PSoC5/LCD_BarGraph.c ****     * Summary:
 160:Generated_Source\PSoC5/LCD_BarGraph.c ****     *  Draws the vertical bargraph.
 161:Generated_Source\PSoC5/LCD_BarGraph.c ****     *
 162:Generated_Source\PSoC5/LCD_BarGraph.c ****     * Parameters:
 163:Generated_Source\PSoC5/LCD_BarGraph.c ****     *  row:            The row in which the bar graph starts.
 164:Generated_Source\PSoC5/LCD_BarGraph.c ****     *  column:         The column in which the bar graph starts.
 165:Generated_Source\PSoC5/LCD_BarGraph.c ****     *  maxCharacters:  The max height of the graph in whole characters.
 166:Generated_Source\PSoC5/LCD_BarGraph.c ****     *  value:          The current length or height of the graph in pixels.
 167:Generated_Source\PSoC5/LCD_BarGraph.c ****     *
 168:Generated_Source\PSoC5/LCD_BarGraph.c ****     * Return:
 169:Generated_Source\PSoC5/LCD_BarGraph.c ****     *  void.
 170:Generated_Source\PSoC5/LCD_BarGraph.c ****     *
 171:Generated_Source\PSoC5/LCD_BarGraph.c ****     *******************************************************************************/
 172:Generated_Source\PSoC5/LCD_BarGraph.c ****     void LCD_DrawVerticalBG(uint8 row, uint8 column, uint8 maxCharacters, uint8 value) \
 173:Generated_Source\PSoC5/LCD_BarGraph.c ****                                                             
 174:Generated_Source\PSoC5/LCD_BarGraph.c ****     {
  84              		.loc 1 174 0
  85              		.cfi_startproc
  86              		@ args = 0, pretend = 0, frame = 0
  87              		@ frame_needed = 0, uses_anonymous_args = 0
  88              	.LVL9:
  89 0000 2DE9F843 		push	{r3, r4, r5, r6, r7, r8, r9, lr}
  90              		.cfi_def_cfa_offset 32
  91              		.cfi_offset 3, -32
  92              		.cfi_offset 4, -28
  93              		.cfi_offset 5, -24
  94              		.cfi_offset 6, -20
  95              		.cfi_offset 7, -16
  96              		.cfi_offset 8, -12
  97              		.cfi_offset 9, -8
  98              		.cfi_offset 14, -4
  99 0004 0546     		mov	r5, r0
 100 0006 0F46     		mov	r7, r1
 101 0008 9046     		mov	r8, r2
 102              	.LVL10:
 175:Generated_Source\PSoC5/LCD_BarGraph.c ****         /* 8-bit Counter */
 176:Generated_Source\PSoC5/LCD_BarGraph.c ****         uint8 count8 = 0u;
 177:Generated_Source\PSoC5/LCD_BarGraph.c ****         /* Current Row Tracker */
 178:Generated_Source\PSoC5/LCD_BarGraph.c ****         int8 currentRow;
 179:Generated_Source\PSoC5/LCD_BarGraph.c ****         uint8 fullChars;
 180:Generated_Source\PSoC5/LCD_BarGraph.c ****         uint8 remainingPixels;
 181:Generated_Source\PSoC5/LCD_BarGraph.c **** 
ARM GAS  C:\Users\jdrd3\AppData\Local\Temp\ccfOvRA1.s 			page 6


 182:Generated_Source\PSoC5/LCD_BarGraph.c ****         /* Number of full characters to draw */
 183:Generated_Source\PSoC5/LCD_BarGraph.c ****         fullChars = value / LCD_CHARACTER_HEIGHT;
 103              		.loc 1 183 0
 104 000a DE08     		lsrs	r6, r3, #3
 105              	.LVL11:
 184:Generated_Source\PSoC5/LCD_BarGraph.c **** 
 185:Generated_Source\PSoC5/LCD_BarGraph.c ****         /* Number of remaining pixels to draw */
 186:Generated_Source\PSoC5/LCD_BarGraph.c ****         remainingPixels = value % LCD_CHARACTER_HEIGHT;
 106              		.loc 1 186 0
 107 000c 03F00709 		and	r9, r3, #7
 108              	.LVL12:
 187:Generated_Source\PSoC5/LCD_BarGraph.c **** 
 188:Generated_Source\PSoC5/LCD_BarGraph.c ****         /* Put Cursor at start position */
 189:Generated_Source\PSoC5/LCD_BarGraph.c ****         LCD_Position(row, column);
 109              		.loc 1 189 0
 110 0010 FFF7FEFF 		bl	LCD_Position
 111              	.LVL13:
 190:Generated_Source\PSoC5/LCD_BarGraph.c **** 
 191:Generated_Source\PSoC5/LCD_BarGraph.c ****         /* Make sure the bar graph fits inside the space allotted */
 192:Generated_Source\PSoC5/LCD_BarGraph.c ****         if(fullChars >= maxCharacters)
 112              		.loc 1 192 0
 113 0014 4645     		cmp	r6, r8
 114 0016 00D3     		bcc	.L6
 193:Generated_Source\PSoC5/LCD_BarGraph.c ****         {
 194:Generated_Source\PSoC5/LCD_BarGraph.c ****             fullChars = maxCharacters;
 115              		.loc 1 194 0
 116 0018 4646     		mov	r6, r8
 117              	.LVL14:
 118              	.L6:
 119 001a 0024     		movs	r4, #0
 120 001c 0EE0     		b	.L7
 121              	.LVL15:
 122              	.L9:
 195:Generated_Source\PSoC5/LCD_BarGraph.c ****         }
 196:Generated_Source\PSoC5/LCD_BarGraph.c **** 
 197:Generated_Source\PSoC5/LCD_BarGraph.c ****         /*  Write full characters */
 198:Generated_Source\PSoC5/LCD_BarGraph.c ****         while(count8 < fullChars)
 199:Generated_Source\PSoC5/LCD_BarGraph.c ****         {
 200:Generated_Source\PSoC5/LCD_BarGraph.c ****             LCD_WriteData(LCD_CUSTOM_7);
 123              		.loc 1 200 0
 124 001e 0720     		movs	r0, #7
 125 0020 FFF7FEFF 		bl	LCD_WriteData
 126              	.LVL16:
 201:Generated_Source\PSoC5/LCD_BarGraph.c **** 
 202:Generated_Source\PSoC5/LCD_BarGraph.c ****             count8++;
 127              		.loc 1 202 0
 128 0024 0134     		adds	r4, r4, #1
 129              	.LVL17:
 130 0026 E4B2     		uxtb	r4, r4
 131              	.LVL18:
 203:Generated_Source\PSoC5/LCD_BarGraph.c **** 
 204:Generated_Source\PSoC5/LCD_BarGraph.c ****             /* Each pass through, move one row higher */
 205:Generated_Source\PSoC5/LCD_BarGraph.c ****             if((((int8) row) - ((int8) count8)) >= 0)
 132              		.loc 1 205 0
 133 0028 6AB2     		sxtb	r2, r5
 134 002a 63B2     		sxtb	r3, r4
 135 002c D21A     		subs	r2, r2, r3
ARM GAS  C:\Users\jdrd3\AppData\Local\Temp\ccfOvRA1.s 			page 7


 136 002e 002A     		cmp	r2, #0
 137 0030 06DB     		blt	.L8
 206:Generated_Source\PSoC5/LCD_BarGraph.c ****             {
 207:Generated_Source\PSoC5/LCD_BarGraph.c ****                 LCD_Position(row - count8, column);
 138              		.loc 1 207 0
 139 0032 281B     		subs	r0, r5, r4
 140 0034 3946     		mov	r1, r7
 141 0036 C0B2     		uxtb	r0, r0
 142 0038 FFF7FEFF 		bl	LCD_Position
 143              	.LVL19:
 144              	.L7:
 198:Generated_Source\PSoC5/LCD_BarGraph.c ****         {
 145              		.loc 1 198 0
 146 003c B442     		cmp	r4, r6
 147 003e EED3     		bcc	.L9
 148              	.L8:
 208:Generated_Source\PSoC5/LCD_BarGraph.c ****             }
 209:Generated_Source\PSoC5/LCD_BarGraph.c ****             else
 210:Generated_Source\PSoC5/LCD_BarGraph.c ****             {
 211:Generated_Source\PSoC5/LCD_BarGraph.c ****                 break;
 212:Generated_Source\PSoC5/LCD_BarGraph.c ****             }
 213:Generated_Source\PSoC5/LCD_BarGraph.c ****         }
 214:Generated_Source\PSoC5/LCD_BarGraph.c **** 
 215:Generated_Source\PSoC5/LCD_BarGraph.c ****         if(((((int8) row) - ((int8) count8)) >= 0) && (fullChars < maxCharacters))
 149              		.loc 1 215 0
 150 0040 6BB2     		sxtb	r3, r5
 151 0042 62B2     		sxtb	r2, r4
 152 0044 9B1A     		subs	r3, r3, r2
 153 0046 002B     		cmp	r3, #0
 154 0048 27DB     		blt	.L5
 155              		.loc 1 215 0 is_stmt 0 discriminator 1
 156 004a B045     		cmp	r8, r6
 157 004c 25D9     		bls	.L5
 216:Generated_Source\PSoC5/LCD_BarGraph.c ****         {
 217:Generated_Source\PSoC5/LCD_BarGraph.c ****             /* Write remaining pixels */
 218:Generated_Source\PSoC5/LCD_BarGraph.c ****             if(remainingPixels == 0u)
 158              		.loc 1 218 0 is_stmt 1
 159 004e B9F1000F 		cmp	r9, #0
 160 0052 03D1     		bne	.L11
 219:Generated_Source\PSoC5/LCD_BarGraph.c ****             {
 220:Generated_Source\PSoC5/LCD_BarGraph.c ****                 LCD_WriteData((uint8) ' ');
 161              		.loc 1 220 0
 162 0054 2020     		movs	r0, #32
 163 0056 FFF7FEFF 		bl	LCD_WriteData
 164              	.LVL20:
 165 005a 04E0     		b	.L12
 166              	.L11:
 221:Generated_Source\PSoC5/LCD_BarGraph.c ****             }
 222:Generated_Source\PSoC5/LCD_BarGraph.c ****             else
 223:Generated_Source\PSoC5/LCD_BarGraph.c ****             {
 224:Generated_Source\PSoC5/LCD_BarGraph.c ****                 LCD_WriteData(remainingPixels - 1u);
 167              		.loc 1 224 0
 168 005c 09F1FF30 		add	r0, r9, #-1
 169 0060 C0B2     		uxtb	r0, r0
 170 0062 FFF7FEFF 		bl	LCD_WriteData
 171              	.LVL21:
 172              	.L12:
ARM GAS  C:\Users\jdrd3\AppData\Local\Temp\ccfOvRA1.s 			page 8


 225:Generated_Source\PSoC5/LCD_BarGraph.c ****             }
 226:Generated_Source\PSoC5/LCD_BarGraph.c **** 
 227:Generated_Source\PSoC5/LCD_BarGraph.c ****             currentRow = ((int8) row) - ((int8) count8) - 1;
 173              		.loc 1 227 0
 174 0066 2C1B     		subs	r4, r5, r4
 175              	.LVL22:
 176 0068 013C     		subs	r4, r4, #1
 177 006a 64B2     		sxtb	r4, r4
 178              	.LVL23:
 228:Generated_Source\PSoC5/LCD_BarGraph.c **** 
 229:Generated_Source\PSoC5/LCD_BarGraph.c ****             if(currentRow >= 0)
 179              		.loc 1 229 0
 180 006c 002C     		cmp	r4, #0
 181 006e 0EDA     		bge	.L16
 182 0070 BDE8F883 		pop	{r3, r4, r5, r6, r7, r8, r9, pc}
 183              	.LVL24:
 184              	.L14:
 230:Generated_Source\PSoC5/LCD_BarGraph.c ****             {
 231:Generated_Source\PSoC5/LCD_BarGraph.c ****                 /* Move up one row and fill with whitespace till top of bar graph */
 232:Generated_Source\PSoC5/LCD_BarGraph.c ****                 for(count8 = 0u; count8 < (maxCharacters - fullChars - 1u); count8++)
 233:Generated_Source\PSoC5/LCD_BarGraph.c ****                 {
 234:Generated_Source\PSoC5/LCD_BarGraph.c ****                     LCD_Position((uint8)currentRow, column);
 185              		.loc 1 234 0 discriminator 3
 186 0074 E4B2     		uxtb	r4, r4
 187 0076 3946     		mov	r1, r7
 188 0078 2046     		mov	r0, r4
 189 007a FFF7FEFF 		bl	LCD_Position
 190              	.LVL25:
 235:Generated_Source\PSoC5/LCD_BarGraph.c ****                     LCD_WriteData((uint8) ' ');
 191              		.loc 1 235 0 discriminator 3
 192 007e 2020     		movs	r0, #32
 193 0080 FFF7FEFF 		bl	LCD_WriteData
 194              	.LVL26:
 236:Generated_Source\PSoC5/LCD_BarGraph.c ****                     currentRow --;
 195              		.loc 1 236 0 discriminator 3
 196 0084 013C     		subs	r4, r4, #1
 197              	.LVL27:
 198 0086 64B2     		sxtb	r4, r4
 199              	.LVL28:
 232:Generated_Source\PSoC5/LCD_BarGraph.c ****                 {
 200              		.loc 1 232 0 discriminator 3
 201 0088 0135     		adds	r5, r5, #1
 202              	.LVL29:
 203 008a EDB2     		uxtb	r5, r5
 204              	.LVL30:
 205 008c 00E0     		b	.L13
 206              	.LVL31:
 207              	.L16:
 208 008e 0025     		movs	r5, #0
 209              	.L13:
 210              	.LVL32:
 232:Generated_Source\PSoC5/LCD_BarGraph.c ****                 {
 211              		.loc 1 232 0 is_stmt 0 discriminator 1
 212 0090 C6EB0803 		rsb	r3, r6, r8
 213 0094 013B     		subs	r3, r3, #1
 214 0096 9D42     		cmp	r5, r3
 215 0098 ECD3     		bcc	.L14
ARM GAS  C:\Users\jdrd3\AppData\Local\Temp\ccfOvRA1.s 			page 9


 216              	.LVL33:
 217              	.L5:
 218 009a BDE8F883 		pop	{r3, r4, r5, r6, r7, r8, r9, pc}
 219              		.cfi_endproc
 220              	.LFE1:
 221              		.size	LCD_DrawVerticalBG, .-LCD_DrawVerticalBG
 222              		.global	LCD_customFonts
 223 009e 00BF     		.section	.rodata
 224              		.align	2
 225              		.type	LCD_customFonts, %object
 226              		.size	LCD_customFonts, 64
 227              	LCD_customFonts:
 228 0000 00       		.byte	0
 229 0001 00       		.byte	0
 230 0002 00       		.byte	0
 231 0003 00       		.byte	0
 232 0004 00       		.byte	0
 233 0005 00       		.byte	0
 234 0006 00       		.byte	0
 235 0007 1F       		.byte	31
 236 0008 00       		.byte	0
 237 0009 00       		.byte	0
 238 000a 00       		.byte	0
 239 000b 00       		.byte	0
 240 000c 00       		.byte	0
 241 000d 00       		.byte	0
 242 000e 1F       		.byte	31
 243 000f 1F       		.byte	31
 244 0010 00       		.byte	0
 245 0011 00       		.byte	0
 246 0012 00       		.byte	0
 247 0013 00       		.byte	0
 248 0014 00       		.byte	0
 249 0015 1F       		.byte	31
 250 0016 1F       		.byte	31
 251 0017 1F       		.byte	31
 252 0018 00       		.byte	0
 253 0019 00       		.byte	0
 254 001a 00       		.byte	0
 255 001b 00       		.byte	0
 256 001c 1F       		.byte	31
 257 001d 1F       		.byte	31
 258 001e 1F       		.byte	31
 259 001f 1F       		.byte	31
 260 0020 00       		.byte	0
 261 0021 00       		.byte	0
 262 0022 00       		.byte	0
 263 0023 1F       		.byte	31
 264 0024 1F       		.byte	31
 265 0025 1F       		.byte	31
 266 0026 1F       		.byte	31
 267 0027 1F       		.byte	31
 268 0028 00       		.byte	0
 269 0029 00       		.byte	0
 270 002a 1F       		.byte	31
 271 002b 1F       		.byte	31
 272 002c 1F       		.byte	31
ARM GAS  C:\Users\jdrd3\AppData\Local\Temp\ccfOvRA1.s 			page 10


 273 002d 1F       		.byte	31
 274 002e 1F       		.byte	31
 275 002f 1F       		.byte	31
 276 0030 00       		.byte	0
 277 0031 1F       		.byte	31
 278 0032 1F       		.byte	31
 279 0033 1F       		.byte	31
 280 0034 1F       		.byte	31
 281 0035 1F       		.byte	31
 282 0036 1F       		.byte	31
 283 0037 1F       		.byte	31
 284 0038 1F       		.byte	31
 285 0039 1F       		.byte	31
 286 003a 1F       		.byte	31
 287 003b 1F       		.byte	31
 288 003c 1F       		.byte	31
 289 003d 1F       		.byte	31
 290 003e 1F       		.byte	31
 291 003f 1F       		.byte	31
 292              		.text
 293              	.Letext0:
 294              		.file 2 "Generated_Source\\PSoC5\\cytypes.h"
 295              		.file 3 "Generated_Source\\PSoC5\\LCD.h"